
bomb:     file format elf64-x86-64


Disassembly of section .init:

0000000000400a98 <_init>:
  400a98:	48 83 ec 08          	sub    $0x8,%rsp
  400a9c:	48 8b 05 55 35 20 00 	mov    0x203555(%rip),%rax        # 603ff8 <__gmon_start__>
  400aa3:	48 85 c0             	test   %rax,%rax
  400aa6:	74 05                	je     400aad <_init+0x15>
  400aa8:	e8 13 01 00 00       	callq  400bc0 <__gmon_start__@plt>
  400aad:	48 83 c4 08          	add    $0x8,%rsp
  400ab1:	c3                   	retq   

Disassembly of section .plt:

0000000000400ac0 <.plt>:
  400ac0:	ff 35 42 35 20 00    	pushq  0x203542(%rip)        # 604008 <_GLOBAL_OFFSET_TABLE_+0x8>
  400ac6:	ff 25 44 35 20 00    	jmpq   *0x203544(%rip)        # 604010 <_GLOBAL_OFFSET_TABLE_+0x10>
  400acc:	0f 1f 40 00          	nopl   0x0(%rax)

0000000000400ad0 <getenv@plt>:
  400ad0:	ff 25 42 35 20 00    	jmpq   *0x203542(%rip)        # 604018 <getenv@GLIBC_2.2.5>
  400ad6:	68 00 00 00 00       	pushq  $0x0
  400adb:	e9 e0 ff ff ff       	jmpq   400ac0 <.plt>

0000000000400ae0 <strcasecmp@plt>:
  400ae0:	ff 25 3a 35 20 00    	jmpq   *0x20353a(%rip)        # 604020 <strcasecmp@GLIBC_2.2.5>
  400ae6:	68 01 00 00 00       	pushq  $0x1
  400aeb:	e9 d0 ff ff ff       	jmpq   400ac0 <.plt>

0000000000400af0 <__errno_location@plt>:
  400af0:	ff 25 32 35 20 00    	jmpq   *0x203532(%rip)        # 604028 <__errno_location@GLIBC_2.2.5>
  400af6:	68 02 00 00 00       	pushq  $0x2
  400afb:	e9 c0 ff ff ff       	jmpq   400ac0 <.plt>

0000000000400b00 <strcpy@plt>:
  400b00:	ff 25 2a 35 20 00    	jmpq   *0x20352a(%rip)        # 604030 <strcpy@GLIBC_2.2.5>
  400b06:	68 03 00 00 00       	pushq  $0x3
  400b0b:	e9 b0 ff ff ff       	jmpq   400ac0 <.plt>

0000000000400b10 <puts@plt>:
  400b10:	ff 25 22 35 20 00    	jmpq   *0x203522(%rip)        # 604038 <puts@GLIBC_2.2.5>
  400b16:	68 04 00 00 00       	pushq  $0x4
  400b1b:	e9 a0 ff ff ff       	jmpq   400ac0 <.plt>

0000000000400b20 <write@plt>:
  400b20:	ff 25 1a 35 20 00    	jmpq   *0x20351a(%rip)        # 604040 <write@GLIBC_2.2.5>
  400b26:	68 05 00 00 00       	pushq  $0x5
  400b2b:	e9 90 ff ff ff       	jmpq   400ac0 <.plt>

0000000000400b30 <printf@plt>:
  400b30:	ff 25 12 35 20 00    	jmpq   *0x203512(%rip)        # 604048 <printf@GLIBC_2.2.5>
  400b36:	68 06 00 00 00       	pushq  $0x6
  400b3b:	e9 80 ff ff ff       	jmpq   400ac0 <.plt>

0000000000400b40 <alarm@plt>:
  400b40:	ff 25 0a 35 20 00    	jmpq   *0x20350a(%rip)        # 604050 <alarm@GLIBC_2.2.5>
  400b46:	68 07 00 00 00       	pushq  $0x7
  400b4b:	e9 70 ff ff ff       	jmpq   400ac0 <.plt>

0000000000400b50 <close@plt>:
  400b50:	ff 25 02 35 20 00    	jmpq   *0x203502(%rip)        # 604058 <close@GLIBC_2.2.5>
  400b56:	68 08 00 00 00       	pushq  $0x8
  400b5b:	e9 60 ff ff ff       	jmpq   400ac0 <.plt>

0000000000400b60 <read@plt>:
  400b60:	ff 25 fa 34 20 00    	jmpq   *0x2034fa(%rip)        # 604060 <read@GLIBC_2.2.5>
  400b66:	68 09 00 00 00       	pushq  $0x9
  400b6b:	e9 50 ff ff ff       	jmpq   400ac0 <.plt>

0000000000400b70 <__libc_start_main@plt>:
  400b70:	ff 25 f2 34 20 00    	jmpq   *0x2034f2(%rip)        # 604068 <__libc_start_main@GLIBC_2.2.5>
  400b76:	68 0a 00 00 00       	pushq  $0xa
  400b7b:	e9 40 ff ff ff       	jmpq   400ac0 <.plt>

0000000000400b80 <fgets@plt>:
  400b80:	ff 25 ea 34 20 00    	jmpq   *0x2034ea(%rip)        # 604070 <fgets@GLIBC_2.2.5>
  400b86:	68 0b 00 00 00       	pushq  $0xb
  400b8b:	e9 30 ff ff ff       	jmpq   400ac0 <.plt>

0000000000400b90 <signal@plt>:
  400b90:	ff 25 e2 34 20 00    	jmpq   *0x2034e2(%rip)        # 604078 <signal@GLIBC_2.2.5>
  400b96:	68 0c 00 00 00       	pushq  $0xc
  400b9b:	e9 20 ff ff ff       	jmpq   400ac0 <.plt>

0000000000400ba0 <gethostbyname@plt>:
  400ba0:	ff 25 da 34 20 00    	jmpq   *0x2034da(%rip)        # 604080 <gethostbyname@GLIBC_2.2.5>
  400ba6:	68 0d 00 00 00       	pushq  $0xd
  400bab:	e9 10 ff ff ff       	jmpq   400ac0 <.plt>

0000000000400bb0 <fprintf@plt>:
  400bb0:	ff 25 d2 34 20 00    	jmpq   *0x2034d2(%rip)        # 604088 <fprintf@GLIBC_2.2.5>
  400bb6:	68 0e 00 00 00       	pushq  $0xe
  400bbb:	e9 00 ff ff ff       	jmpq   400ac0 <.plt>

0000000000400bc0 <__gmon_start__@plt>:
  400bc0:	ff 25 ca 34 20 00    	jmpq   *0x2034ca(%rip)        # 604090 <__gmon_start__>
  400bc6:	68 0f 00 00 00       	pushq  $0xf
  400bcb:	e9 f0 fe ff ff       	jmpq   400ac0 <.plt>

0000000000400bd0 <memcpy@plt>:
  400bd0:	ff 25 c2 34 20 00    	jmpq   *0x2034c2(%rip)        # 604098 <memcpy@GLIBC_2.14>
  400bd6:	68 10 00 00 00       	pushq  $0x10
  400bdb:	e9 e0 fe ff ff       	jmpq   400ac0 <.plt>

0000000000400be0 <fflush@plt>:
  400be0:	ff 25 ba 34 20 00    	jmpq   *0x2034ba(%rip)        # 6040a0 <fflush@GLIBC_2.2.5>
  400be6:	68 11 00 00 00       	pushq  $0x11
  400beb:	e9 d0 fe ff ff       	jmpq   400ac0 <.plt>

0000000000400bf0 <__isoc99_sscanf@plt>:
  400bf0:	ff 25 b2 34 20 00    	jmpq   *0x2034b2(%rip)        # 6040a8 <__isoc99_sscanf@GLIBC_2.7>
  400bf6:	68 12 00 00 00       	pushq  $0x12
  400bfb:	e9 c0 fe ff ff       	jmpq   400ac0 <.plt>

0000000000400c00 <bcopy@plt>:
  400c00:	ff 25 aa 34 20 00    	jmpq   *0x2034aa(%rip)        # 6040b0 <bcopy@GLIBC_2.2.5>
  400c06:	68 13 00 00 00       	pushq  $0x13
  400c0b:	e9 b0 fe ff ff       	jmpq   400ac0 <.plt>

0000000000400c10 <fopen@plt>:
  400c10:	ff 25 a2 34 20 00    	jmpq   *0x2034a2(%rip)        # 6040b8 <fopen@GLIBC_2.2.5>
  400c16:	68 14 00 00 00       	pushq  $0x14
  400c1b:	e9 a0 fe ff ff       	jmpq   400ac0 <.plt>

0000000000400c20 <gethostname@plt>:
  400c20:	ff 25 9a 34 20 00    	jmpq   *0x20349a(%rip)        # 6040c0 <gethostname@GLIBC_2.2.5>
  400c26:	68 15 00 00 00       	pushq  $0x15
  400c2b:	e9 90 fe ff ff       	jmpq   400ac0 <.plt>

0000000000400c30 <sprintf@plt>:
  400c30:	ff 25 92 34 20 00    	jmpq   *0x203492(%rip)        # 6040c8 <sprintf@GLIBC_2.2.5>
  400c36:	68 16 00 00 00       	pushq  $0x16
  400c3b:	e9 80 fe ff ff       	jmpq   400ac0 <.plt>

0000000000400c40 <exit@plt>:
  400c40:	ff 25 8a 34 20 00    	jmpq   *0x20348a(%rip)        # 6040d0 <exit@GLIBC_2.2.5>
  400c46:	68 17 00 00 00       	pushq  $0x17
  400c4b:	e9 70 fe ff ff       	jmpq   400ac0 <.plt>

0000000000400c50 <connect@plt>:
  400c50:	ff 25 82 34 20 00    	jmpq   *0x203482(%rip)        # 6040d8 <connect@GLIBC_2.2.5>
  400c56:	68 18 00 00 00       	pushq  $0x18
  400c5b:	e9 60 fe ff ff       	jmpq   400ac0 <.plt>

0000000000400c60 <sleep@plt>:
  400c60:	ff 25 7a 34 20 00    	jmpq   *0x20347a(%rip)        # 6040e0 <sleep@GLIBC_2.2.5>
  400c66:	68 19 00 00 00       	pushq  $0x19
  400c6b:	e9 50 fe ff ff       	jmpq   400ac0 <.plt>

0000000000400c70 <__ctype_b_loc@plt>:
  400c70:	ff 25 72 34 20 00    	jmpq   *0x203472(%rip)        # 6040e8 <__ctype_b_loc@GLIBC_2.3>
  400c76:	68 1a 00 00 00       	pushq  $0x1a
  400c7b:	e9 40 fe ff ff       	jmpq   400ac0 <.plt>

0000000000400c80 <socket@plt>:
  400c80:	ff 25 6a 34 20 00    	jmpq   *0x20346a(%rip)        # 6040f0 <socket@GLIBC_2.2.5>
  400c86:	68 1b 00 00 00       	pushq  $0x1b
  400c8b:	e9 30 fe ff ff       	jmpq   400ac0 <.plt>

Disassembly of section .text:

0000000000400c90 <_start>:
  400c90:	31 ed                	xor    %ebp,%ebp
  400c92:	49 89 d1             	mov    %rdx,%r9
  400c95:	5e                   	pop    %rsi
  400c96:	48 89 e2             	mov    %rsp,%rdx
  400c99:	48 83 e4 f0          	and    $0xfffffffffffffff0,%rsp
  400c9d:	50                   	push   %rax
  400c9e:	54                   	push   %rsp
  400c9f:	49 c7 c0 60 29 40 00 	mov    $0x402960,%r8
  400ca6:	48 c7 c1 f0 28 40 00 	mov    $0x4028f0,%rcx
  400cad:	48 c7 c7 7d 0d 40 00 	mov    $0x400d7d,%rdi
  400cb4:	e8 b7 fe ff ff       	callq  400b70 <__libc_start_main@plt>
  400cb9:	f4                   	hlt    
  400cba:	66 0f 1f 44 00 00    	nopw   0x0(%rax,%rax,1)

0000000000400cc0 <deregister_tm_clones>:
  400cc0:	b8 07 46 60 00       	mov    $0x604607,%eax
  400cc5:	55                   	push   %rbp
  400cc6:	48 2d 00 46 60 00    	sub    $0x604600,%rax
  400ccc:	48 83 f8 0e          	cmp    $0xe,%rax
  400cd0:	48 89 e5             	mov    %rsp,%rbp
  400cd3:	77 02                	ja     400cd7 <deregister_tm_clones+0x17>
  400cd5:	5d                   	pop    %rbp
  400cd6:	c3                   	retq   
  400cd7:	b8 00 00 00 00       	mov    $0x0,%eax
  400cdc:	48 85 c0             	test   %rax,%rax
  400cdf:	74 f4                	je     400cd5 <deregister_tm_clones+0x15>
  400ce1:	5d                   	pop    %rbp
  400ce2:	bf 00 46 60 00       	mov    $0x604600,%edi
  400ce7:	ff e0                	jmpq   *%rax
  400ce9:	0f 1f 80 00 00 00 00 	nopl   0x0(%rax)

0000000000400cf0 <register_tm_clones>:
  400cf0:	b8 00 46 60 00       	mov    $0x604600,%eax
  400cf5:	55                   	push   %rbp
  400cf6:	48 2d 00 46 60 00    	sub    $0x604600,%rax
  400cfc:	48 c1 f8 03          	sar    $0x3,%rax
  400d00:	48 89 e5             	mov    %rsp,%rbp
  400d03:	48 89 c2             	mov    %rax,%rdx
  400d06:	48 c1 ea 3f          	shr    $0x3f,%rdx
  400d0a:	48 01 d0             	add    %rdx,%rax
  400d0d:	48 d1 f8             	sar    %rax
  400d10:	75 02                	jne    400d14 <register_tm_clones+0x24>
  400d12:	5d                   	pop    %rbp
  400d13:	c3                   	retq   
  400d14:	ba 00 00 00 00       	mov    $0x0,%edx
  400d19:	48 85 d2             	test   %rdx,%rdx
  400d1c:	74 f4                	je     400d12 <register_tm_clones+0x22>
  400d1e:	5d                   	pop    %rbp
  400d1f:	48 89 c6             	mov    %rax,%rsi
  400d22:	bf 00 46 60 00       	mov    $0x604600,%edi
  400d27:	ff e2                	jmpq   *%rdx
  400d29:	0f 1f 80 00 00 00 00 	nopl   0x0(%rax)

0000000000400d30 <__do_global_dtors_aux>:
  400d30:	80 3d e1 38 20 00 00 	cmpb   $0x0,0x2038e1(%rip)        # 604618 <completed.6355>
  400d37:	75 11                	jne    400d4a <__do_global_dtors_aux+0x1a>
  400d39:	55                   	push   %rbp
  400d3a:	48 89 e5             	mov    %rsp,%rbp
  400d3d:	e8 7e ff ff ff       	callq  400cc0 <deregister_tm_clones>
  400d42:	5d                   	pop    %rbp
  400d43:	c6 05 ce 38 20 00 01 	movb   $0x1,0x2038ce(%rip)        # 604618 <completed.6355>
  400d4a:	f3 c3                	repz retq 
  400d4c:	0f 1f 40 00          	nopl   0x0(%rax)

0000000000400d50 <frame_dummy>:
  400d50:	48 83 3d c8 30 20 00 	cmpq   $0x0,0x2030c8(%rip)        # 603e20 <__JCR_END__>
  400d57:	00 
  400d58:	74 1e                	je     400d78 <frame_dummy+0x28>
  400d5a:	b8 00 00 00 00       	mov    $0x0,%eax
  400d5f:	48 85 c0             	test   %rax,%rax
  400d62:	74 14                	je     400d78 <frame_dummy+0x28>
  400d64:	55                   	push   %rbp
  400d65:	bf 20 3e 60 00       	mov    $0x603e20,%edi
  400d6a:	48 89 e5             	mov    %rsp,%rbp
  400d6d:	ff d0                	callq  *%rax
  400d6f:	5d                   	pop    %rbp
  400d70:	e9 7b ff ff ff       	jmpq   400cf0 <register_tm_clones>
  400d75:	0f 1f 00             	nopl   (%rax)
  400d78:	e9 73 ff ff ff       	jmpq   400cf0 <register_tm_clones>

0000000000400d7d <main>:
  400d7d:	55                   	push   %rbp
  400d7e:	53                   	push   %rbx
  400d7f:	48 83 ec 08          	sub    $0x8,%rsp
  400d83:	89 fb                	mov    %edi,%ebx
  400d85:	83 ff 01             	cmp    $0x1,%edi
  400d88:	75 10                	jne    400d9a <main+0x1d>
  400d8a:	48 8b 05 77 38 20 00 	mov    0x203877(%rip),%rax        # 604608 <stdin@@GLIBC_2.2.5>
  400d91:	48 89 05 90 38 20 00 	mov    %rax,0x203890(%rip)        # 604628 <infile>
  400d98:	eb 5a                	jmp    400df4 <main+0x77>
  400d9a:	48 89 f5             	mov    %rsi,%rbp
  400d9d:	83 ff 02             	cmp    $0x2,%edi
  400da0:	75 36                	jne    400dd8 <main+0x5b>
  400da2:	48 8b 7e 08          	mov    0x8(%rsi),%rdi
  400da6:	be 90 29 40 00       	mov    $0x402990,%esi
  400dab:	e8 60 fe ff ff       	callq  400c10 <fopen@plt>
  400db0:	48 89 05 71 38 20 00 	mov    %rax,0x203871(%rip)        # 604628 <infile>
  400db7:	48 85 c0             	test   %rax,%rax
  400dba:	75 38                	jne    400df4 <main+0x77>
  400dbc:	48 8b 55 08          	mov    0x8(%rbp),%rdx
  400dc0:	48 8b 75 00          	mov    0x0(%rbp),%rsi
  400dc4:	bf 92 29 40 00       	mov    $0x402992,%edi
  400dc9:	e8 62 fd ff ff       	callq  400b30 <printf@plt>
  400dce:	bf 08 00 00 00       	mov    $0x8,%edi
  400dd3:	e8 68 fe ff ff       	callq  400c40 <exit@plt>
  400dd8:	48 8b 36             	mov    (%rsi),%rsi
  400ddb:	bf af 29 40 00       	mov    $0x4029af,%edi
  400de0:	b8 00 00 00 00       	mov    $0x0,%eax
  400de5:	e8 46 fd ff ff       	callq  400b30 <printf@plt>
  400dea:	bf 08 00 00 00       	mov    $0x8,%edi
  400def:	e8 4c fe ff ff       	callq  400c40 <exit@plt>
  400df4:	e8 ce 05 00 00       	callq  4013c7 <initialize_bomb>
  400df9:	89 df                	mov    %ebx,%edi
  400dfb:	b8 00 00 00 00       	mov    $0x0,%eax
  400e00:	e8 7b 06 00 00       	callq  401480 <welcome_message>
  400e05:	e8 7e 0e 00 00       	callq  401c88 <read_line>
  400e0a:	48 89 c7             	mov    %rax,%rdi
  400e0d:	e8 ae 00 00 00       	callq  400ec0 <phase_1>
  400e12:	e8 60 08 00 00       	callq  401677 <phase_defused>
  400e17:	bf e8 29 40 00       	mov    $0x4029e8,%edi
  400e1c:	e8 ef fc ff ff       	callq  400b10 <puts@plt>
  400e21:	e8 62 0e 00 00       	callq  401c88 <read_line>
  400e26:	48 89 c7             	mov    %rax,%rdi
  400e29:	e8 ad 00 00 00       	callq  400edb <phase_2>
  400e2e:	e8 44 08 00 00       	callq  401677 <phase_defused>
  400e33:	bf 28 2a 40 00       	mov    $0x402a28,%edi
  400e38:	e8 d3 fc ff ff       	callq  400b10 <puts@plt>
  400e3d:	e8 46 0e 00 00       	callq  401c88 <read_line>
  400e42:	48 89 c7             	mov    %rax,%rdi
  400e45:	e8 4f 01 00 00       	callq  400f99 <phase_3>
  400e4a:	e8 28 08 00 00       	callq  401677 <phase_defused>
  400e4f:	bf 50 2a 40 00       	mov    $0x402a50,%edi
  400e54:	e8 b7 fc ff ff       	callq  400b10 <puts@plt>
  400e59:	e8 2a 0e 00 00       	callq  401c88 <read_line>
  400e5e:	48 89 c7             	mov    %rax,%rdi
  400e61:	e8 98 01 00 00       	callq  400ffe <phase_4>
  400e66:	e8 0c 08 00 00       	callq  401677 <phase_defused>
  400e6b:	bf 78 2a 40 00       	mov    $0x402a78,%edi
  400e70:	e8 9b fc ff ff       	callq  400b10 <puts@plt>
  400e75:	e8 0e 0e 00 00       	callq  401c88 <read_line>
  400e7a:	48 89 c7             	mov    %rax,%rdi
  400e7d:	e8 27 02 00 00       	callq  4010a9 <phase_5>
  400e82:	e8 f0 07 00 00       	callq  401677 <phase_defused>
  400e87:	bf b0 2a 40 00       	mov    $0x402ab0,%edi
  400e8c:	e8 7f fc ff ff       	callq  400b10 <puts@plt>
  400e91:	e8 f2 0d 00 00       	callq  401c88 <read_line>
  400e96:	48 89 c7             	mov    %rax,%rdi
  400e99:	e8 62 02 00 00       	callq  401100 <phase_6>
  400e9e:	e8 d4 07 00 00       	callq  401677 <phase_defused>
  400ea3:	bf c9 29 40 00       	mov    $0x4029c9,%edi
  400ea8:	e8 63 fc ff ff       	callq  400b10 <puts@plt>
  400ead:	b8 00 00 00 00       	mov    $0x0,%eax
  400eb2:	48 83 c4 08          	add    $0x8,%rsp
  400eb6:	5b                   	pop    %rbx
  400eb7:	5d                   	pop    %rbp
  400eb8:	c3                   	retq   
  400eb9:	0f 1f 80 00 00 00 00 	nopl   0x0(%rax)

0000000000400ec0 <phase_1>:
  400ec0:	53                   	push   %rbx
  400ec1:	48 89 fb             	mov    %rdi,%rbx
  400ec4:	80 7f 01 00          	cmpb   $0x0,0x1(%rdi)
  400ec8:	74 05                	je     400ecf <phase_1+0xf>
  400eca:	e8 e1 07 00 00       	callq  4016b0 <explode_bomb>
  400ecf:	80 3b 69             	cmpb   $0x69,(%rbx)
  400ed2:	74 05                	je     400ed9 <phase_1+0x19>
  400ed4:	e8 d7 07 00 00       	callq  4016b0 <explode_bomb>
  400ed9:	5b                   	pop    %rbx
  400eda:	c3                   	retq   

0000000000400edb <phase_2>:
  400edb:	41 54                	push   %r12
  400edd:	55                   	push   %rbp
  400ede:	53                   	push   %rbx
  400edf:	48 83 ec 20          	sub    $0x20,%rsp
  400ee3:	48 89 e6             	mov    %rsp,%rsi
  400ee6:	e8 5b 0d 00 00       	callq  401c46 <read_six_numbers>
  400eeb:	83 3c 24 00          	cmpl   $0x0,(%rsp)
  400eef:	79 40                	jns    400f31 <phase_2+0x56>
  400ef1:	e8 ba 07 00 00       	callq  4016b0 <explode_bomb>
  400ef6:	eb 39                	jmp    400f31 <phase_2+0x56>
  400ef8:	49 89 dc             	mov    %rbx,%r12
  400efb:	89 e8                	mov    %ebp,%eax
  400efd:	03 43 fc             	add    -0x4(%rbx),%eax
  400f00:	39 03                	cmp    %eax,(%rbx)
  400f02:	74 05                	je     400f09 <phase_2+0x2e>
  400f04:	e8 a7 07 00 00       	callq  4016b0 <explode_bomb>
  400f09:	41 8b 04 24          	mov    (%r12),%eax
  400f0d:	89 05 09 37 20 00    	mov    %eax,0x203709(%rip)        # 60461c <last>
  400f13:	83 c5 01             	add    $0x1,%ebp
  400f16:	48 83 c3 04          	add    $0x4,%rbx
  400f1a:	83 fd 06             	cmp    $0x6,%ebp
  400f1d:	75 d9                	jne    400ef8 <phase_2+0x1d>
  400f1f:	8b 05 f7 36 20 00    	mov    0x2036f7(%rip),%eax        # 60461c <last>
  400f25:	83 f8 0f             	cmp    $0xf,%eax
  400f28:	75 13                	jne    400f3d <phase_2+0x62>
  400f2a:	e8 81 07 00 00       	callq  4016b0 <explode_bomb>
  400f2f:	eb 0c                	jmp    400f3d <phase_2+0x62>
  400f31:	48 8d 5c 24 04       	lea    0x4(%rsp),%rbx
  400f36:	bd 01 00 00 00       	mov    $0x1,%ebp
  400f3b:	eb bb                	jmp    400ef8 <phase_2+0x1d>
  400f3d:	48 83 c4 20          	add    $0x20,%rsp
  400f41:	5b                   	pop    %rbx
  400f42:	5d                   	pop    %rbp
  400f43:	41 5c                	pop    %r12
  400f45:	c3                   	retq   

0000000000400f46 <func_switch>:
  400f46:	83 ff 07             	cmp    $0x7,%edi
  400f49:	77 33                	ja     400f7e <func_switch+0x38>
  400f4b:	89 ff                	mov    %edi,%edi
  400f4d:	ff 24 fd e0 2a 40 00 	jmpq   *0x402ae0(,%rdi,8)
  400f54:	b8 7e 00 00 00       	mov    $0x7e,%eax #when rdi = 0
  400f59:	c3                   	retq   
  400f5a:	b8 e4 00 00 00       	mov    $0xe4,%eax #when rdi = 2
  400f5f:	c3                   	retq   
  400f60:	b8 40 03 00 00       	mov    $0x340,%eax #when rdi = 3
  400f65:	c3                   	retq   
  400f66:	b8 be 02 00 00       	mov    $0x2be,%eax #when rdi = 4
  400f6b:	c3                   	retq   
  400f6c:	b8 58 01 00 00       	mov    $0x158,%eax #when rdi = 5
  400f71:	c3                   	retq   
  400f72:	b8 e9 02 00 00       	mov    $0x2e9,%eax #when rdi = 6
  400f77:	c3                   	retq   
  400f78:	b8 be 02 00 00       	mov    $0x2be,%eax #when rdi = 7
  400f7d:	c3                   	retq   
  400f7e:	48 83 ec 08          	sub    $0x8,%rsp
  400f82:	e8 29 07 00 00       	callq  4016b0 <explode_bomb> 
  400f87:	b8 00 00 00 00       	mov    $0x0,%eax
  400f8c:	eb 06                	jmp    400f94 <func_switch+0x4e>
  400f8e:	b8 98 03 00 00       	mov    $0x398,%eax #when rdi = 1
  400f93:	c3                   	retq   
  400f94:	48 83 c4 08          	add    $0x8,%rsp
  400f98:	c3                   	retq   

0000000000400f99 <phase_3>:
  400f99:	53                   	push   %rbx
  400f9a:	48 83 ec 10          	sub    $0x10,%rsp
  400f9e:	c7 44 24 0c 00 00 00 	movl   $0x0,0xc(%rsp)
  400fa5:	00 
  400fa6:	c7 44 24 08 00 00 00 	movl   $0x0,0x8(%rsp)
  400fad:	00 
  400fae:	48 8d 4c 24 08       	lea    0x8(%rsp),%rcx
  400fb3:	48 8d 54 24 0c       	lea    0xc(%rsp),%rdx
  400fb8:	be e9 31 40 00       	mov    $0x4031e9,%esi
  400fbd:	b8 00 00 00 00       	mov    $0x0,%eax
  400fc2:	e8 29 fc ff ff       	callq  400bf0 <__isoc99_sscanf@plt>
  400fc7:	83 f8 01             	cmp    $0x1,%eax
  400fca:	7e 0a                	jle    400fd6 <phase_3+0x3d>
  400fcc:	8b 44 24 08          	mov    0x8(%rsp),%eax
  400fd0:	39 44 24 0c          	cmp    %eax,0xc(%rsp)
  400fd4:	75 05                	jne    400fdb <phase_3+0x42>
  400fd6:	e8 d5 06 00 00       	callq  4016b0 <explode_bomb>
  400fdb:	8b 7c 24 0c          	mov    0xc(%rsp),%edi
  400fdf:	e8 62 ff ff ff       	callq  400f46 <func_switch>
  400fe4:	89 c3                	mov    %eax,%ebx
  400fe6:	8b 7c 24 08          	mov    0x8(%rsp),%edi
  400fea:	e8 57 ff ff ff       	callq  400f46 <func_switch>
  400fef:	39 c3                	cmp    %eax,%ebx
  400ff1:	74 05                	je     400ff8 <phase_3+0x5f>
  400ff3:	e8 b8 06 00 00       	callq  4016b0 <explode_bomb>
  400ff8:	48 83 c4 10          	add    $0x10,%rsp
  400ffc:	5b                   	pop    %rbx
  400ffd:	c3                   	retq   

0000000000400ffe <phase_4>:
  400ffe:	48 83 ec 18          	sub    $0x18,%rsp
  401002:	48 8d 4c 24 08       	lea    0x8(%rsp),%rcx
  401007:	48 8d 54 24 0c       	lea    0xc(%rsp),%rdx
  40100c:	be e9 31 40 00       	mov    $0x4031e9,%esi
  401011:	b8 00 00 00 00       	mov    $0x0,%eax
  401016:	e8 d5 fb ff ff       	callq  400bf0 <__isoc99_sscanf@plt>
  40101b:	83 f8 01             	cmp    $0x1,%eax
  40101e:	7f 05                	jg     401025 <phase_4+0x27>
  401020:	e8 8b 06 00 00       	callq  4016b0 <explode_bomb>
  401025:	8b 44 24 0c          	mov    0xc(%rsp),%eax
  401029:	83 e0 0f             	and    $0xf,%eax
  40102c:	89 44 24 0c          	mov    %eax,0xc(%rsp)
  401030:	83 f8 0f             	cmp    $0xf,%eax
  401033:	74 2c                	je     401061 <phase_4+0x63>
  401035:	b9 00 00 00 00       	mov    $0x0,%ecx
  40103a:	ba 00 00 00 00       	mov    $0x0,%edx
  40103f:	83 c2 01             	add    $0x1,%edx
  401042:	48 98                	cltq   
  401044:	8b 04 85 20 2b 40 00 	mov    0x402b20(,%rax,4),%eax
  40104b:	01 c1                	add    %eax,%ecx
  40104d:	83 f8 0f             	cmp    $0xf,%eax
  401050:	75 ed                	jne    40103f <phase_4+0x41>
  401052:	89 44 24 0c          	mov    %eax,0xc(%rsp)
  401056:	83 fa 0f             	cmp    $0xf,%edx
  401059:	75 06                	jne    401061 <phase_4+0x63>
  40105b:	3b 4c 24 08          	cmp    0x8(%rsp),%ecx
  40105f:	74 05                	je     401066 <phase_4+0x68>
  401061:	e8 4a 06 00 00       	callq  4016b0 <explode_bomb>
  401066:	48 83 c4 18          	add    $0x18,%rsp
  40106a:	c3                   	retq   

000000000040106b <func_rec>:
  40106b:	48 83 ec 08          	sub    $0x8,%rsp
  40106f:	89 d0                	mov    %edx,%eax
  401071:	29 f0                	sub    %esi,%eax
  401073:	89 c1                	mov    %eax,%ecx
  401075:	c1 e9 1f             	shr    $0x1f,%ecx
  401078:	01 c8                	add    %ecx,%eax
  40107a:	d1 f8                	sar    %eax
  40107c:	8d 0c 30             	lea    (%rax,%rsi,1),%ecx
  40107f:	39 f9                	cmp    %edi,%ecx
  401081:	7e 0c                	jle    40108f <func_rec+0x24>
  401083:	8d 51 ff             	lea    -0x1(%rcx),%edx
  401086:	e8 e0 ff ff ff       	callq  40106b <func_rec>
  40108b:	01 c0                	add    %eax,%eax
  40108d:	eb 15                	jmp    4010a4 <func_rec+0x39>
  40108f:	b8 00 00 00 00       	mov    $0x0,%eax
  401094:	39 f9                	cmp    %edi,%ecx
  401096:	7d 0c                	jge    4010a4 <func_rec+0x39>
  401098:	8d 71 01             	lea    0x1(%rcx),%esi
  40109b:	e8 cb ff ff ff       	callq  40106b <func_rec>
  4010a0:	8d 44 00 01          	lea    0x1(%rax,%rax,1),%eax
  4010a4:	48 83 c4 08          	add    $0x8,%rsp
  4010a8:	c3                   	retq   
stepi
x/x 0x402b
00000000004010a9 <phase_5>:
  4010a9:	48 83 ec 18          	sub    $0x18,%rsp
  4010ad:	48 8d 4c 24 08       	lea    0x8(%rsp),%rcx
  4010b2:	48 8d 54 24 0c       	lea    0xc(%rsp),%rdx
  4010b7:	be e9 31 40 00       	mov    $0x4031e9,%esi
  4010bc:	b8 00 00 00 00       	mov    $0x0,%eax
  4010c1:	e8 2a fb ff ff       	callq  400bf0 <__isoc99_sscanf@plt>
  4010c6:	83 f8 02             	cmp    $0x2,%eax
  4010c9:	75 07                	jne    4010d2 <phase_5+0x29>
  4010cb:	83 7c 24 0c 0e       	cmpl   $0xe,0xc(%rsp)
  4010d0:	76 05                	jbe    4010d7 <phase_5+0x2e>
  4010d2:	e8 d9 05 00 00       	callq  4016b0 <explode_bomb>
  4010d7:	ba 0e 00 00 00       	mov    $0xe,%edx
  4010dc:	be 00 00 00 00       	mov    $0x0,%esi
  4010e1:	8b 7c 24 0c          	mov    0xc(%rsp),%edi
  4010e5:	e8 81 ff ff ff       	callq  40106b <func_rec>
  4010ea:	83 f8 05             	cmp    $0x5,%eax
  4010ed:	75 07                	jne    4010f6 <phase_5+0x4d>
  4010ef:	83 7c 24 08 05       	cmpl   $0x5,0x8(%rsp)
  4010f4:	74 05                	je     4010fb <phase_5+0x52>
  4010f6:	e8 b5 05 00 00       	callq  4016b0 <explode_bomb>
  4010fb:	48 83 c4 18          	add    $0x18,%rsp
  4010ff:	c3                   	retq   

0000000000401100 <phase_6>:
  401100:	41 56                	push   %r14
  401102:	41 55                	push   %r13
  401104:	41 54                	push   %r12
  401106:	55                   	push   %rbp
  401107:	53                   	push   %rbx
  401108:	48 83 ec 50          	sub    $0x50,%rsp
  40110c:	4c 8d 6c 24 30       	lea    0x30(%rsp),%r13
  401111:	4c 89 ee             	mov    %r13,%rsi
  401114:	e8 2d 0b 00 00       	callq  401c46 <read_six_numbers>
  401119:	4d 89 ee             	mov    %r13,%r14
  40111c:	41 bc 00 00 00 00    	mov    $0x0,%r12d
  401122:	4c 89 ed             	mov    %r13,%rbp
  401125:	41 8b 45 00          	mov    0x0(%r13),%eax
  401129:	83 e8 01             	sub    $0x1,%eax
  40112c:	83 f8 05             	cmp    $0x5,%eax
  40112f:	76 05                	jbe    401136 <phase_6+0x36>
  401131:	e8 7a 05 00 00       	callq  4016b0 <explode_bomb>
  401136:	41 83 c4 01          	add    $0x1,%r12d
  40113a:	41 83 fc 06          	cmp    $0x6,%r12d
  40113e:	74 22                	je     401162 <phase_6+0x62>
  401140:	44 89 e3             	mov    %r12d,%ebx
  401143:	48 63 c3             	movslq %ebx,%rax
  401146:	8b 44 84 30          	mov    0x30(%rsp,%rax,4),%eax
  40114a:	39 45 00             	cmp    %eax,0x0(%rbp)
  40114d:	75 05                	jne    401154 <phase_6+0x54>
  40114f:	e8 5c 05 00 00       	callq  4016b0 <explode_bomb>
  401154:	83 c3 01             	add    $0x1,%ebx
  401157:	83 fb 05             	cmp    $0x5,%ebx
  40115a:	7e e7                	jle    401143 <phase_6+0x43>
  40115c:	49 83 c5 04          	add    $0x4,%r13
  401160:	eb c0                	jmp    401122 <phase_6+0x22>
  401162:	48 8d 74 24 48       	lea    0x48(%rsp),%rsi
  401167:	4c 89 f0             	mov    %r14,%rax
  40116a:	b9 07 00 00 00       	mov    $0x7,%ecx
  40116f:	89 ca                	mov    %ecx,%edx
  401171:	2b 10                	sub    (%rax),%edx
  401173:	89 10                	mov    %edx,(%rax)
  401175:	48 83 c0 04          	add    $0x4,%rax
  401179:	48 39 f0             	cmp    %rsi,%rax
  40117c:	75 f1                	jne    40116f <phase_6+0x6f>
  40117e:	be 00 00 00 00       	mov    $0x0,%esi
  401183:	eb 20                	jmp    4011a5 <phase_6+0xa5>
  401185:	48 8b 52 08          	mov    0x8(%rdx),%rdx
  401189:	83 c0 01             	add    $0x1,%eax
  40118c:	39 c8                	cmp    %ecx,%eax
  40118e:	75 f5                	jne    401185 <phase_6+0x85>
  401190:	eb 05                	jmp    401197 <phase_6+0x97>
  401192:	ba 60 41 60 00       	mov    $0x604160,%edx
  401197:	48 89 14 74          	mov    %rdx,(%rsp,%rsi,2)
  40119b:	48 83 c6 04          	add    $0x4,%rsi
  40119f:	48 83 fe 18          	cmp    $0x18,%rsi
  4011a3:	74 15                	je     4011ba <phase_6+0xba>
  4011a5:	8b 4c 34 30          	mov    0x30(%rsp,%rsi,1),%ecx
  4011a9:	83 f9 01             	cmp    $0x1,%ecx
  4011ac:	7e e4                	jle    401192 <phase_6+0x92>
  4011ae:	b8 01 00 00 00       	mov    $0x1,%eax
  4011b3:	ba 60 41 60 00       	mov    $0x604160,%edx
  4011b8:	eb cb                	jmp    401185 <phase_6+0x85>
  4011ba:	48 8b 1c 24          	mov    (%rsp),%rbx
  4011be:	48 8d 44 24 08       	lea    0x8(%rsp),%rax
  4011c3:	48 8d 74 24 30       	lea    0x30(%rsp),%rsi
  4011c8:	48 89 d9             	mov    %rbx,%rcx
  4011cb:	48 8b 10             	mov    (%rax),%rdx
  4011ce:	48 89 51 08          	mov    %rdx,0x8(%rcx)
  4011d2:	48 83 c0 08          	add    $0x8,%rax
  4011d6:	48 39 f0             	cmp    %rsi,%rax
  4011d9:	74 05                	je     4011e0 <phase_6+0xe0>
  4011db:	48 89 d1             	mov    %rdx,%rcx
  4011de:	eb eb                	jmp    4011cb <phase_6+0xcb>
  4011e0:	48 c7 42 08 00 00 00 	movq   $0x0,0x8(%rdx)
  4011e7:	00 
  4011e8:	bd 05 00 00 00       	mov    $0x5,%ebp
  4011ed:	48 8b 43 08          	mov    0x8(%rbx),%rax
  4011f1:	8b 00                	mov    (%rax),%eax
  4011f3:	39 03                	cmp    %eax,(%rbx)
  4011f5:	7d 05                	jge    4011fc <phase_6+0xfc>
  4011f7:	e8 b4 04 00 00       	callq  4016b0 <explode_bomb>
  4011fc:	48 8b 5b 08          	mov    0x8(%rbx),%rbx
  401200:	83 ed 01             	sub    $0x1,%ebp
  401203:	75 e8                	jne    4011ed <phase_6+0xed>
  401205:	8b 05 11 34 20 00    	mov    0x203411(%rip),%eax        # 60461c <last>
  40120b:	83 f8 21             	cmp    $0x21,%eax
  40120e:	75 05                	jne    401215 <phase_6+0x115>
  401210:	e8 9b 04 00 00       	callq  4016b0 <explode_bomb>
  401215:	48 83 c4 50          	add    $0x50,%rsp
  401219:	5b                   	pop    %rbx
  40121a:	5d                   	pop    %rbp
  40121b:	41 5c                	pop    %r12
  40121d:	41 5d                	pop    %r13
  40121f:	41 5e                	pop    %r14
  401221:	c3                   	retq   
x/3x 0x6041
0000000000401222 <s3cret_ph4se>:
  401222:	41 55                	push   %r13
  401224:	41 54                	push   %r12
  401226:	55                   	push   %rbp
  401227:	53                   	push   %rbx
  401228:	48 83 ec 08          	sub    $0x8,%rsp
  40122c:	e8 57 0a 00 00       	callq  401c88 <read_line>
  401231:	49 89 c5             	mov    %rax,%r13
  401234:	bb 00 00 00 00       	mov    $0x0,%ebx
  401239:	bd 01 00 00 00       	mov    $0x1,%ebp
  40123e:	41 bc 01 00 00 00    	mov    $0x1,%r12d
  401244:	41 0f b6 54 1d 00    	movzbl 0x0(%r13,%rbx,1),%edx
  40124a:	80 fa 73             	cmp    $0x73,%dl
  40124d:	75 05                	jne    401254 <s3cret_ph4se+0x32>
  40124f:	83 ed 01             	sub    $0x1,%ebp
  401252:	eb 25                	jmp    401279 <s3cret_ph4se+0x57>
  401254:	80 fa 62             	cmp    $0x62,%dl
  401257:	75 06                	jne    40125f <s3cret_ph4se+0x3d>
  401259:	41 83 ec 01          	sub    $0x1,%r12d
  40125d:	eb 1a                	jmp    401279 <s3cret_ph4se+0x57>
  40125f:	80 fa 61             	cmp    $0x61,%dl
  401262:	75 05                	jne    401269 <s3cret_ph4se+0x47>
  401264:	83 c5 01             	add    $0x1,%ebp
  401267:	eb 10                	jmp    401279 <s3cret_ph4se+0x57>
  401269:	80 fa 72             	cmp    $0x72,%dl
  40126c:	75 06                	jne    401274 <s3cret_ph4se+0x52>
  40126e:	41 83 c4 01          	add    $0x1,%r12d
  401272:	eb 05                	jmp    401279 <s3cret_ph4se+0x57>
  401274:	e8 37 04 00 00       	callq  4016b0 <explode_bomb>
  401279:	44 89 e0             	mov    %r12d,%eax
  40127c:	89 ea                	mov    %ebp,%edx
  40127e:	0f b6 94 d0 20 41 60 	movzbl 0x604120(%rax,%rdx,8),%edx
  401285:	00 
  401286:	80 fa ff             	cmp    $0xff,%dl
  401289:	75 07                	jne    401292 <s3cret_ph4se+0x70>
  40128b:	e8 20 04 00 00       	callq  4016b0 <explode_bomb>
  401290:	eb 16                	jmp    4012a8 <s3cret_ph4se+0x86>
  401292:	80 fa 21             	cmp    $0x21,%dl
  401295:	75 11                	jne    4012a8 <s3cret_ph4se+0x86>
  401297:	bf 60 2b 40 00       	mov    $0x402b60,%edi
  40129c:	e8 6f f8 ff ff       	callq  400b10 <puts@plt>
  4012a1:	e8 d1 03 00 00       	callq  401677 <phase_defused>
  4012a6:	eb 0f                	jmp    4012b7 <s3cret_ph4se+0x95>
  4012a8:	48 83 c3 01          	add    $0x1,%rbx
  4012ac:	48 83 fb 64          	cmp    $0x64,%rbx
  4012b0:	75 92                	jne    401244 <s3cret_ph4se+0x22>
  4012b2:	e8 f9 03 00 00       	callq  4016b0 <explode_bomb>
  4012b7:	48 83 c4 08          	add    $0x8,%rsp
  4012bb:	5b                   	pop    %rbx
  4012bc:	5d                   	pop    %rbp
  4012bd:	41 5c                	pop    %r12
  4012bf:	41 5d                	pop    %r13
  4012c1:	c3                   	retq   
  4012c2:	66 2e 0f 1f 84 00 00 	nopw   %cs:0x0(%rax,%rax,1)
  4012c9:	00 00 00 
  4012cc:	0f 1f 40 00          	nopl   0x0(%rax)

00000000004012d0 <sig_handler>:
  4012d0:	48 83 ec 08          	sub    $0x8,%rsp
  4012d4:	bf 88 2b 40 00       	mov    $0x402b88,%edi
  4012d9:	e8 32 f8 ff ff       	callq  400b10 <puts@plt>
  4012de:	bf 03 00 00 00       	mov    $0x3,%edi
  4012e3:	e8 78 f9 ff ff       	callq  400c60 <sleep@plt>
  4012e8:	bf 0b 31 40 00       	mov    $0x40310b,%edi
  4012ed:	b8 00 00 00 00       	mov    $0x0,%eax
  4012f2:	e8 39 f8 ff ff       	callq  400b30 <printf@plt>
  4012f7:	48 8b 3d 02 33 20 00 	mov    0x203302(%rip),%rdi        # 604600 <stdout@@GLIBC_2.2.5>
  4012fe:	e8 dd f8 ff ff       	callq  400be0 <fflush@plt>
  401303:	bf 01 00 00 00       	mov    $0x1,%edi
  401308:	e8 53 f9 ff ff       	callq  400c60 <sleep@plt>
  40130d:	bf 13 31 40 00       	mov    $0x403113,%edi
  401312:	e8 f9 f7 ff ff       	callq  400b10 <puts@plt>
  401317:	bf 10 00 00 00       	mov    $0x10,%edi
  40131c:	e8 1f f9 ff ff       	callq  400c40 <exit@plt>

0000000000401321 <invalid_phase>:
  401321:	48 83 ec 08          	sub    $0x8,%rsp
  401325:	48 89 fe             	mov    %rdi,%rsi
  401328:	bf 1b 31 40 00       	mov    $0x40311b,%edi
  40132d:	b8 00 00 00 00       	mov    $0x0,%eax
  401332:	e8 f9 f7 ff ff       	callq  400b30 <printf@plt>
  401337:	bf 08 00 00 00       	mov    $0x8,%edi
  40133c:	e8 ff f8 ff ff       	callq  400c40 <exit@plt>

0000000000401341 <string_length>:
  401341:	b8 00 00 00 00       	mov    $0x0,%eax
  401346:	eb 0e                	jmp    401356 <string_length+0x15>
  401348:	48 83 c7 01          	add    $0x1,%rdi
  40134c:	83 c0 01             	add    $0x1,%eax
  40134f:	3d 10 27 00 00       	cmp    $0x2710,%eax
  401354:	74 05                	je     40135b <string_length+0x1a>
  401356:	80 3f 00             	cmpb   $0x0,(%rdi)
  401359:	75 ed                	jne    401348 <string_length+0x7>
  40135b:	f3 c3                	repz retq 

000000000040135d <strings_not_equal>:
  40135d:	41 54                	push   %r12
  40135f:	55                   	push   %rbp
  401360:	53                   	push   %rbx
  401361:	48 89 fb             	mov    %rdi,%rbx
  401364:	48 89 f5             	mov    %rsi,%rbp
  401367:	e8 d5 ff ff ff       	callq  401341 <string_length>
  40136c:	41 89 c4             	mov    %eax,%r12d
  40136f:	48 89 ef             	mov    %rbp,%rdi
  401372:	e8 ca ff ff ff       	callq  401341 <string_length>
  401377:	ba 01 00 00 00       	mov    $0x1,%edx
  40137c:	41 39 c4             	cmp    %eax,%r12d
  40137f:	75 3f                	jne    4013c0 <strings_not_equal+0x63>
  401381:	0f b6 03             	movzbl (%rbx),%eax
  401384:	84 c0                	test   %al,%al
  401386:	74 25                	je     4013ad <strings_not_equal+0x50>
  401388:	3a 45 00             	cmp    0x0(%rbp),%al
  40138b:	74 0a                	je     401397 <strings_not_equal+0x3a>
  40138d:	0f 1f 00             	nopl   (%rax)
  401390:	eb 22                	jmp    4013b4 <strings_not_equal+0x57>
  401392:	3a 45 00             	cmp    0x0(%rbp),%al
  401395:	75 24                	jne    4013bb <strings_not_equal+0x5e>
  401397:	48 83 c3 01          	add    $0x1,%rbx
  40139b:	48 83 c5 01          	add    $0x1,%rbp
  40139f:	0f b6 03             	movzbl (%rbx),%eax
  4013a2:	84 c0                	test   %al,%al
  4013a4:	75 ec                	jne    401392 <strings_not_equal+0x35>
  4013a6:	ba 00 00 00 00       	mov    $0x0,%edx
  4013ab:	eb 13                	jmp    4013c0 <strings_not_equal+0x63>
  4013ad:	ba 00 00 00 00       	mov    $0x0,%edx
  4013b2:	eb 0c                	jmp    4013c0 <strings_not_equal+0x63>
  4013b4:	ba 01 00 00 00       	mov    $0x1,%edx
  4013b9:	eb 05                	jmp    4013c0 <strings_not_equal+0x63>
  4013bb:	ba 01 00 00 00       	mov    $0x1,%edx
  4013c0:	89 d0                	mov    %edx,%eax
  4013c2:	5b                   	pop    %rbx
  4013c3:	5d                   	pop    %rbp
  4013c4:	41 5c                	pop    %r12
  4013c6:	c3                   	retq   

00000000004013c7 <initialize_bomb>:
  4013c7:	53                   	push   %rbx
  4013c8:	48 81 ec 40 20 00 00 	sub    $0x2040,%rsp
  4013cf:	be d0 12 40 00       	mov    $0x4012d0,%esi
  4013d4:	bf 02 00 00 00       	mov    $0x2,%edi
  4013d9:	e8 b2 f7 ff ff       	callq  400b90 <signal@plt>
  4013de:	be 40 00 00 00       	mov    $0x40,%esi
  4013e3:	48 8d bc 24 00 20 00 	lea    0x2000(%rsp),%rdi
  4013ea:	00 
  4013eb:	e8 30 f8 ff ff       	callq  400c20 <gethostname@plt>
  4013f0:	85 c0                	test   %eax,%eax
  4013f2:	75 13                	jne    401407 <initialize_bomb+0x40>
  4013f4:	48 8b 3d 05 2e 20 00 	mov    0x202e05(%rip),%rdi        # 604200 <host_table>
  4013fb:	bb 08 42 60 00       	mov    $0x604208,%ebx
  401400:	48 85 ff             	test   %rdi,%rdi
  401403:	75 16                	jne    40141b <initialize_bomb+0x54>
  401405:	eb 50                	jmp    401457 <initialize_bomb+0x90>
  401407:	bf c0 2b 40 00       	mov    $0x402bc0,%edi
  40140c:	e8 ff f6 ff ff       	callq  400b10 <puts@plt>
  401411:	bf 08 00 00 00       	mov    $0x8,%edi
  401416:	e8 25 f8 ff ff       	callq  400c40 <exit@plt>
  40141b:	48 8d b4 24 00 20 00 	lea    0x2000(%rsp),%rsi
  401422:	00 
  401423:	e8 b8 f6 ff ff       	callq  400ae0 <strcasecmp@plt>
  401428:	85 c0                	test   %eax,%eax
  40142a:	74 3f                	je     40146b <initialize_bomb+0xa4>
  40142c:	48 83 c3 08          	add    $0x8,%rbx
  401430:	48 8b 7b f8          	mov    -0x8(%rbx),%rdi
  401434:	48 85 ff             	test   %rdi,%rdi
  401437:	75 e2                	jne    40141b <initialize_bomb+0x54>
  401439:	eb 1c                	jmp    401457 <initialize_bomb+0x90>
  40143b:	48 89 e6             	mov    %rsp,%rsi
  40143e:	bf 2c 31 40 00       	mov    $0x40312c,%edi
  401443:	b8 00 00 00 00       	mov    $0x0,%eax
  401448:	e8 e3 f6 ff ff       	callq  400b30 <printf@plt>
  40144d:	bf 08 00 00 00       	mov    $0x8,%edi
  401452:	e8 e9 f7 ff ff       	callq  400c40 <exit@plt>
  401457:	bf f8 2b 40 00       	mov    $0x402bf8,%edi
  40145c:	e8 af f6 ff ff       	callq  400b10 <puts@plt>
  401461:	bf 08 00 00 00       	mov    $0x8,%edi
  401466:	e8 d5 f7 ff ff       	callq  400c40 <exit@plt>
  40146b:	48 89 e7             	mov    %rsp,%rdi
  40146e:	e8 5e 12 00 00       	callq  4026d1 <init_driver>
  401473:	85 c0                	test   %eax,%eax
  401475:	78 c4                	js     40143b <initialize_bomb+0x74>
  401477:	48 81 c4 40 20 00 00 	add    $0x2040,%rsp
  40147e:	5b                   	pop    %rbx
  40147f:	c3                   	retq   

0000000000401480 <welcome_message>:
  401480:	83 ff 01             	cmp    $0x1,%edi
  401483:	0f 85 a8 00 00 00    	jne    401531 <welcome_message+0xb1>
  401489:	48 83 ec 08          	sub    $0x8,%rsp
  40148d:	bf 30 2c 40 00       	mov    $0x402c30,%edi
  401492:	e8 79 f6 ff ff       	callq  400b10 <puts@plt>
  401497:	bf 70 2c 40 00       	mov    $0x402c70,%edi
  40149c:	e8 6f f6 ff ff       	callq  400b10 <puts@plt>
  4014a1:	bf b0 2c 40 00       	mov    $0x402cb0,%edi
  4014a6:	e8 65 f6 ff ff       	callq  400b10 <puts@plt>
  4014ab:	bf f0 2c 40 00       	mov    $0x402cf0,%edi
  4014b0:	e8 5b f6 ff ff       	callq  400b10 <puts@plt>
  4014b5:	bf 30 2d 40 00       	mov    $0x402d30,%edi
  4014ba:	e8 51 f6 ff ff       	callq  400b10 <puts@plt>
  4014bf:	bf 70 2d 40 00       	mov    $0x402d70,%edi
  4014c4:	e8 47 f6 ff ff       	callq  400b10 <puts@plt>
  4014c9:	bf b0 2d 40 00       	mov    $0x402db0,%edi
  4014ce:	e8 3d f6 ff ff       	callq  400b10 <puts@plt>
  4014d3:	bf e8 2d 40 00       	mov    $0x402de8,%edi
  4014d8:	e8 33 f6 ff ff       	callq  400b10 <puts@plt>
  4014dd:	bf 20 2e 40 00       	mov    $0x402e20,%edi
  4014e2:	e8 29 f6 ff ff       	callq  400b10 <puts@plt>
  4014e7:	bf 60 2e 40 00       	mov    $0x402e60,%edi
  4014ec:	e8 1f f6 ff ff       	callq  400b10 <puts@plt>
  4014f1:	bf a0 2e 40 00       	mov    $0x402ea0,%edi
  4014f6:	e8 15 f6 ff ff       	callq  400b10 <puts@plt>
  4014fb:	bf e0 2e 40 00       	mov    $0x402ee0,%edi
  401500:	e8 0b f6 ff ff       	callq  400b10 <puts@plt>
  401505:	bf 20 2f 40 00       	mov    $0x402f20,%edi
  40150a:	e8 01 f6 ff ff       	callq  400b10 <puts@plt>
  40150f:	bf 60 2f 40 00       	mov    $0x402f60,%edi
  401514:	e8 f7 f5 ff ff       	callq  400b10 <puts@plt>
  401519:	bf a0 2f 40 00       	mov    $0x402fa0,%edi
  40151e:	e8 ed f5 ff ff       	callq  400b10 <puts@plt>
  401523:	bf e0 2f 40 00       	mov    $0x402fe0,%edi
  401528:	e8 e3 f5 ff ff       	callq  400b10 <puts@plt>
  40152d:	48 83 c4 08          	add    $0x8,%rsp
  401531:	f3 c3                	repz retq 

0000000000401533 <initialize_bomb_solve>:
  401533:	f3 c3                	repz retq 

0000000000401535 <blank_line>:
  401535:	55                   	push   %rbp
  401536:	53                   	push   %rbx
  401537:	48 83 ec 08          	sub    $0x8,%rsp
  40153b:	48 89 fb             	mov    %rdi,%rbx
  40153e:	eb 17                	jmp    401557 <blank_line+0x22>
  401540:	e8 2b f7 ff ff       	callq  400c70 <__ctype_b_loc@plt>
  401545:	48 83 c3 01          	add    $0x1,%rbx
  401549:	48 0f be ed          	movsbq %bpl,%rbp
  40154d:	48 8b 00             	mov    (%rax),%rax
  401550:	f6 44 68 01 20       	testb  $0x20,0x1(%rax,%rbp,2)
  401555:	74 0f                	je     401566 <blank_line+0x31>
  401557:	0f b6 2b             	movzbl (%rbx),%ebp
  40155a:	40 84 ed             	test   %bpl,%bpl
  40155d:	75 e1                	jne    401540 <blank_line+0xb>
  40155f:	b8 01 00 00 00       	mov    $0x1,%eax
  401564:	eb 05                	jmp    40156b <blank_line+0x36>
  401566:	b8 00 00 00 00       	mov    $0x0,%eax
  40156b:	48 83 c4 08          	add    $0x8,%rsp
  40156f:	5b                   	pop    %rbx
  401570:	5d                   	pop    %rbp
  401571:	c3                   	retq   

0000000000401572 <skip>:
  401572:	53                   	push   %rbx
  401573:	48 63 05 a6 30 20 00 	movslq 0x2030a6(%rip),%rax        # 604620 <num_input_strings>
  40157a:	48 8d 3c 80          	lea    (%rax,%rax,4),%rdi
  40157e:	48 c1 e7 04          	shl    $0x4,%rdi
  401582:	48 81 c7 40 46 60 00 	add    $0x604640,%rdi
  401589:	48 8b 15 98 30 20 00 	mov    0x203098(%rip),%rdx        # 604628 <infile>
  401590:	be 50 00 00 00       	mov    $0x50,%esi
  401595:	e8 e6 f5 ff ff       	callq  400b80 <fgets@plt>
  40159a:	48 89 c3             	mov    %rax,%rbx
  40159d:	48 85 c0             	test   %rax,%rax
  4015a0:	74 0c                	je     4015ae <skip+0x3c>
  4015a2:	48 89 c7             	mov    %rax,%rdi
  4015a5:	e8 8b ff ff ff       	callq  401535 <blank_line>
  4015aa:	85 c0                	test   %eax,%eax
  4015ac:	75 c5                	jne    401573 <skip+0x1>
  4015ae:	48 89 d8             	mov    %rbx,%rax
  4015b1:	5b                   	pop    %rbx
  4015b2:	c3                   	retq   

00000000004015b3 <send_msg>:
  4015b3:	48 81 ec 08 40 00 00 	sub    $0x4008,%rsp
  4015ba:	89 fe                	mov    %edi,%esi
  4015bc:	44 8b 05 5d 30 20 00 	mov    0x20305d(%rip),%r8d        # 604620 <num_input_strings>
  4015c3:	41 8d 40 ff          	lea    -0x1(%r8),%eax
  4015c7:	48 98                	cltq   
  4015c9:	4c 8d 0c 80          	lea    (%rax,%rax,4),%r9
  4015cd:	49 c1 e1 04          	shl    $0x4,%r9
  4015d1:	49 81 c1 40 46 60 00 	add    $0x604640,%r9
  4015d8:	4c 89 cf             	mov    %r9,%rdi
  4015db:	b8 00 00 00 00       	mov    $0x0,%eax
  4015e0:	48 c7 c1 ff ff ff ff 	mov    $0xffffffffffffffff,%rcx
  4015e7:	f2 ae                	repnz scas %es:(%rdi),%al
  4015e9:	48 f7 d1             	not    %rcx
  4015ec:	48 83 c1 63          	add    $0x63,%rcx
  4015f0:	48 81 f9 00 20 00 00 	cmp    $0x2000,%rcx
  4015f7:	76 14                	jbe    40160d <send_msg+0x5a>
  4015f9:	bf 20 30 40 00       	mov    $0x403020,%edi
  4015fe:	e8 2d f5 ff ff       	callq  400b30 <printf@plt>
  401603:	bf 08 00 00 00       	mov    $0x8,%edi
  401608:	e8 33 f6 ff ff       	callq  400c40 <exit@plt>
  40160d:	85 f6                	test   %esi,%esi
  40160f:	b8 46 31 40 00       	mov    $0x403146,%eax
  401614:	b9 4e 31 40 00       	mov    $0x40314e,%ecx
  401619:	48 0f 45 c8          	cmovne %rax,%rcx
  40161d:	8b 15 bd 2b 20 00    	mov    0x202bbd(%rip),%edx        # 6041e0 <bomb_id>
  401623:	be 57 31 40 00       	mov    $0x403157,%esi
  401628:	48 8d bc 24 00 20 00 	lea    0x2000(%rsp),%rdi
  40162f:	00 
  401630:	b8 00 00 00 00       	mov    $0x0,%eax
  401635:	e8 f6 f5 ff ff       	callq  400c30 <sprintf@plt>
  40163a:	49 89 e0             	mov    %rsp,%r8
  40163d:	b9 00 00 00 00       	mov    $0x0,%ecx
  401642:	48 8d 94 24 00 20 00 	lea    0x2000(%rsp),%rdx
  401649:	00 
  40164a:	be c0 41 60 00       	mov    $0x6041c0,%esi
  40164f:	bf d5 41 60 00       	mov    $0x6041d5,%edi
  401654:	e8 16 12 00 00       	callq  40286f <driver_post>
  401659:	85 c0                	test   %eax,%eax
  40165b:	79 12                	jns    40166f <send_msg+0xbc>
  40165d:	48 89 e7             	mov    %rsp,%rdi
  401660:	e8 ab f4 ff ff       	callq  400b10 <puts@plt>
  401665:	bf 00 00 00 00       	mov    $0x0,%edi
  40166a:	e8 d1 f5 ff ff       	callq  400c40 <exit@plt>
  40166f:	48 81 c4 08 40 00 00 	add    $0x4008,%rsp
  401676:	c3                   	retq   

0000000000401677 <phase_defused>:
  401677:	48 83 ec 08          	sub    $0x8,%rsp
  40167b:	bf 01 00 00 00       	mov    $0x1,%edi
  401680:	e8 2e ff ff ff       	callq  4015b3 <send_msg>
  401685:	83 3d 94 2f 20 00 05 	cmpl   $0x5,0x202f94(%rip)        # 604620 <num_input_strings>
  40168c:	7e 1d                	jle    4016ab <phase_defused+0x34>
  40168e:	83 3d 87 2f 20 00 21 	cmpl   $0x21,0x202f87(%rip)        # 60461c <last>
  401695:	74 14                	je     4016ab <phase_defused+0x34>
  401697:	bf 48 30 40 00       	mov    $0x403048,%edi
  40169c:	e8 6f f4 ff ff       	callq  400b10 <puts@plt>
  4016a1:	bf 78 30 40 00       	mov    $0x403078,%edi
  4016a6:	e8 65 f4 ff ff       	callq  400b10 <puts@plt>
  4016ab:	48 83 c4 08          	add    $0x8,%rsp
  4016af:	c3                   	retq   

00000000004016b0 <explode_bomb>:
  4016b0:	48 81 ec d8 00 00 00 	sub    $0xd8,%rsp
  4016b7:	83 3d 62 2f 20 00 06 	cmpl   $0x6,0x202f62(%rip)        # 604620 <num_input_strings>
  4016be:	77 60                	ja     401720 <explode_bomb+0x70>
  4016c0:	8b 05 5a 2f 20 00    	mov    0x202f5a(%rip),%eax        # 604620 <num_input_strings>
  4016c6:	ff 24 c5 40 33 40 00 	jmpq   *0x403340(,%rax,8)
  4016cd:	bf 63 31 40 00       	mov    $0x403163,%edi
  4016d2:	e8 39 f4 ff ff       	callq  400b10 <puts@plt>
  4016d7:	eb 47                	jmp    401720 <explode_bomb+0x70>
  4016d9:	bf c0 30 40 00       	mov    $0x4030c0,%edi
  4016de:	e8 2d f4 ff ff       	callq  400b10 <puts@plt>
  4016e3:	eb 3b                	jmp    401720 <explode_bomb+0x70>
  4016e5:	bf 68 31 40 00       	mov    $0x403168,%edi
  4016ea:	e8 21 f4 ff ff       	callq  400b10 <puts@plt>
  4016ef:	90                   	nop
  4016f0:	eb 2e                	jmp    401720 <explode_bomb+0x70>
  4016f2:	bf 7d 31 40 00       	mov    $0x40317d,%edi
  4016f7:	e8 14 f4 ff ff       	callq  400b10 <puts@plt>
  4016fc:	eb 22                	jmp    401720 <explode_bomb+0x70>
  4016fe:	bf 93 31 40 00       	mov    $0x403193,%edi
  401703:	e8 08 f4 ff ff       	callq  400b10 <puts@plt>
  401708:	eb 16                	jmp    401720 <explode_bomb+0x70>
  40170a:	bf aa 31 40 00       	mov    $0x4031aa,%edi
  40170f:	e8 fc f3 ff ff       	callq  400b10 <puts@plt>
  401714:	eb 0a                	jmp    401720 <explode_bomb+0x70>
  401716:	bf b3 31 40 00       	mov    $0x4031b3,%edi
  40171b:	e8 f0 f3 ff ff       	callq  400b10 <puts@plt>
  401720:	48 89 e7             	mov    %rsp,%rdi
  401723:	b9 19 00 00 00       	mov    $0x19,%ecx
  401728:	b8 00 00 00 00       	mov    $0x0,%eax
  40172d:	f3 48 ab             	rep stos %rax,%es:(%rdi)
  401730:	c6 04 24 53          	movb   $0x53,(%rsp)
  401734:	c6 44 24 01 6f       	movb   $0x6f,0x1(%rsp)
  401739:	c6 44 24 02 20       	movb   $0x20,0x2(%rsp)
  40173e:	c6 44 24 03 79       	movb   $0x79,0x3(%rsp)
  401743:	c6 44 24 04 6f       	movb   $0x6f,0x4(%rsp)
  401748:	c6 44 24 05 75       	movb   $0x75,0x5(%rsp)
  40174d:	c6 44 24 06 20       	movb   $0x20,0x6(%rsp)
  401752:	c6 44 24 07 6d       	movb   $0x6d,0x7(%rsp)
  401757:	c6 44 24 08 61       	movb   $0x61,0x8(%rsp)
  40175c:	c6 44 24 09 64       	movb   $0x64,0x9(%rsp)
  401761:	c6 44 24 0a 65       	movb   $0x65,0xa(%rsp)
  401766:	c6 44 24 0b 20       	movb   $0x20,0xb(%rsp)
  40176b:	c6 44 24 0c 69       	movb   $0x69,0xc(%rsp)
  401770:	c6 44 24 0d 74       	movb   $0x74,0xd(%rsp)
  401775:	c6 44 24 0e 20       	movb   $0x20,0xe(%rsp)
  40177a:	c6 44 24 0f 74       	movb   $0x74,0xf(%rsp)
  40177f:	c6 44 24 10 6f       	movb   $0x6f,0x10(%rsp)
  401784:	c6 44 24 11 20       	movb   $0x20,0x11(%rsp)
  401789:	c6 44 24 12 74       	movb   $0x74,0x12(%rsp)
  40178e:	c6 44 24 13 68       	movb   $0x68,0x13(%rsp)
  401793:	c6 44 24 14 65       	movb   $0x65,0x14(%rsp)
  401798:	c6 44 24 15 20       	movb   $0x20,0x15(%rsp)
  40179d:	c6 44 24 16 73       	movb   $0x73,0x16(%rsp)
  4017a2:	c6 44 24 17 33       	movb   $0x33,0x17(%rsp)
  4017a7:	c6 44 24 18 63       	movb   $0x63,0x18(%rsp)
  4017ac:	c6 44 24 19 72       	movb   $0x72,0x19(%rsp)
  4017b1:	c6 44 24 1a 65       	movb   $0x65,0x1a(%rsp)
  4017b6:	c6 44 24 1b 74       	movb   $0x74,0x1b(%rsp)
  4017bb:	c6 44 24 1c 20       	movb   $0x20,0x1c(%rsp)
  4017c0:	c6 44 24 1d 70       	movb   $0x70,0x1d(%rsp)
  4017c5:	c6 44 24 1e 68       	movb   $0x68,0x1e(%rsp)
  4017ca:	c6 44 24 1f 61       	movb   $0x61,0x1f(%rsp)
  4017cf:	c6 44 24 20 73       	movb   $0x73,0x20(%rsp)
  4017d4:	c6 44 24 21 65       	movb   $0x65,0x21(%rsp)
  4017d9:	c6 44 24 22 2e       	movb   $0x2e,0x22(%rsp)
  4017de:	c6 44 24 23 20       	movb   $0x20,0x23(%rsp)
  4017e3:	c6 44 24 24 20       	movb   $0x20,0x24(%rsp)
  4017e8:	c6 44 24 25 4e       	movb   $0x4e,0x25(%rsp)
  4017ed:	c6 44 24 26 69       	movb   $0x69,0x26(%rsp)
  4017f2:	c6 44 24 27 63       	movb   $0x63,0x27(%rsp)
  4017f7:	c6 44 24 28 65       	movb   $0x65,0x28(%rsp)
  4017fc:	c6 44 24 29 2c       	movb   $0x2c,0x29(%rsp)
  401801:	c6 44 24 2a 20       	movb   $0x20,0x2a(%rsp)
  401806:	c6 44 24 2b 62       	movb   $0x62,0x2b(%rsp)
  40180b:	c6 44 24 2c 75       	movb   $0x75,0x2c(%rsp)
  401810:	c6 44 24 2d 74       	movb   $0x74,0x2d(%rsp)
  401815:	c6 44 24 2e 0a       	movb   $0xa,0x2e(%rsp)
  40181a:	c6 44 24 2f 64       	movb   $0x64,0x2f(%rsp)
  40181f:	c6 44 24 30 6f       	movb   $0x6f,0x30(%rsp)
  401824:	c6 44 24 31 6e       	movb   $0x6e,0x31(%rsp)
  401829:	c6 44 24 32 27       	movb   $0x27,0x32(%rsp)
  40182e:	c6 44 24 33 74       	movb   $0x74,0x33(%rsp)
  401833:	c6 44 24 34 20       	movb   $0x20,0x34(%rsp)
  401838:	c6 44 24 35 74       	movb   $0x74,0x35(%rsp)
  40183d:	c6 44 24 36 65       	movb   $0x65,0x36(%rsp)
  401842:	c6 44 24 37 6c       	movb   $0x6c,0x37(%rsp)
  401847:	c6 44 24 38 6c       	movb   $0x6c,0x38(%rsp)
  40184c:	c6 44 24 39 20       	movb   $0x20,0x39(%rsp)
  401851:	c6 44 24 3a 61       	movb   $0x61,0x3a(%rsp)
  401856:	c6 44 24 3b 6e       	movb   $0x6e,0x3b(%rsp)
  40185b:	c6 44 24 3c 79       	movb   $0x79,0x3c(%rsp)
  401860:	c6 44 24 3d 6f       	movb   $0x6f,0x3d(%rsp)
  401865:	c6 44 24 3e 6e       	movb   $0x6e,0x3e(%rsp)
  40186a:	c6 44 24 3f 65       	movb   $0x65,0x3f(%rsp)
  40186f:	c6 44 24 40 20       	movb   $0x20,0x40(%rsp)
  401874:	c6 44 24 41 61       	movb   $0x61,0x41(%rsp)
  401879:	c6 44 24 42 62       	movb   $0x62,0x42(%rsp)
  40187e:	c6 44 24 43 6f       	movb   $0x6f,0x43(%rsp)
  401883:	c6 44 24 44 75       	movb   $0x75,0x44(%rsp)
  401888:	c6 44 24 45 74       	movb   $0x74,0x45(%rsp)
  40188d:	c6 44 24 46 20       	movb   $0x20,0x46(%rsp)
  401892:	c6 44 24 47 69       	movb   $0x69,0x47(%rsp)
  401897:	c6 44 24 48 74       	movb   $0x74,0x48(%rsp)
  40189c:	c6 44 24 49 20       	movb   $0x20,0x49(%rsp)
  4018a1:	c6 44 24 4a 28       	movb   $0x28,0x4a(%rsp)
  4018a6:	c6 44 24 4b 65       	movb   $0x65,0x4b(%rsp)
  4018ab:	c6 44 24 4c 73       	movb   $0x73,0x4c(%rsp)
  4018b0:	c6 44 24 4d 70       	movb   $0x70,0x4d(%rsp)
  4018b5:	c6 44 24 4e 65       	movb   $0x65,0x4e(%rsp)
  4018ba:	c6 44 24 4f 63       	movb   $0x63,0x4f(%rsp)
  4018bf:	c6 44 24 50 69       	movb   $0x69,0x50(%rsp)
  4018c4:	c6 44 24 51 61       	movb   $0x61,0x51(%rsp)
  4018c9:	c6 44 24 52 6c       	movb   $0x6c,0x52(%rsp)
  4018ce:	c6 44 24 53 6c       	movb   $0x6c,0x53(%rsp)
  4018d3:	c6 44 24 54 79       	movb   $0x79,0x54(%rsp)
  4018d8:	c6 44 24 55 20       	movb   $0x20,0x55(%rsp)
  4018dd:	c6 44 24 56 6f       	movb   $0x6f,0x56(%rsp)
  4018e2:	c6 44 24 57 6e       	movb   $0x6e,0x57(%rsp)
  4018e7:	c6 44 24 58 20       	movb   $0x20,0x58(%rsp)
  4018ec:	c6 44 24 59 50       	movb   $0x50,0x59(%rsp)
  4018f1:	c6 44 24 5a 69       	movb   $0x69,0x5a(%rsp)
  4018f6:	c6 44 24 5b 61       	movb   $0x61,0x5b(%rsp)
  4018fb:	c6 44 24 5c 7a       	movb   $0x7a,0x5c(%rsp)
  401900:	c6 44 24 5d 7a       	movb   $0x7a,0x5d(%rsp)
  401905:	c6 44 24 5e 61       	movb   $0x61,0x5e(%rsp)
  40190a:	c6 44 24 5f 29       	movb   $0x29,0x5f(%rsp)
  40190f:	c6 44 24 60 2e       	movb   $0x2e,0x60(%rsp)
  401914:	c6 44 24 61 0a       	movb   $0xa,0x61(%rsp)
  401919:	c6 44 24 62 49       	movb   $0x49,0x62(%rsp)
  40191e:	c6 44 24 63 66       	movb   $0x66,0x63(%rsp)
  401923:	c6 44 24 64 20       	movb   $0x20,0x64(%rsp)
  401928:	c6 44 24 65 79       	movb   $0x79,0x65(%rsp)
  40192d:	c6 44 24 66 6f       	movb   $0x6f,0x66(%rsp)
  401932:	c6 44 24 67 75       	movb   $0x75,0x67(%rsp)
  401937:	c6 44 24 68 20       	movb   $0x20,0x68(%rsp)
  40193c:	c6 44 24 69 64       	movb   $0x64,0x69(%rsp)
  401941:	c6 44 24 6a 6f       	movb   $0x6f,0x6a(%rsp)
  401946:	c6 44 24 6b 20       	movb   $0x20,0x6b(%rsp)
  40194b:	c6 44 24 6c 79       	movb   $0x79,0x6c(%rsp)
  401950:	c6 44 24 6d 6f       	movb   $0x6f,0x6d(%rsp)
  401955:	c6 44 24 6e 75       	movb   $0x75,0x6e(%rsp)
  40195a:	c6 44 24 6f 20       	movb   $0x20,0x6f(%rsp)
  40195f:	c6 44 24 70 77       	movb   $0x77,0x70(%rsp)
  401964:	c6 44 24 71 6f       	movb   $0x6f,0x71(%rsp)
  401969:	c6 44 24 72 6e       	movb   $0x6e,0x72(%rsp)
  40196e:	c6 44 24 73 27       	movb   $0x27,0x73(%rsp)
  401973:	c6 44 24 74 74       	movb   $0x74,0x74(%rsp)
  401978:	c6 44 24 75 20       	movb   $0x20,0x75(%rsp)
  40197d:	c6 44 24 76 67       	movb   $0x67,0x76(%rsp)
  401982:	c6 44 24 77 65       	movb   $0x65,0x77(%rsp)
  401987:	c6 44 24 78 74       	movb   $0x74,0x78(%rsp)
  40198c:	c6 44 24 79 20       	movb   $0x20,0x79(%rsp)
  401991:	c6 44 24 7a 61       	movb   $0x61,0x7a(%rsp)
  401996:	c6 44 24 7b 6e       	movb   $0x6e,0x7b(%rsp)
  40199b:	c6 44 24 7c 79       	movb   $0x79,0x7c(%rsp)
  4019a0:	c6 44 24 7d 20       	movb   $0x20,0x7d(%rsp)
  4019a5:	c6 44 24 7e 65       	movb   $0x65,0x7e(%rsp)
  4019aa:	c6 44 24 7f 78       	movb   $0x78,0x7f(%rsp)
  4019af:	c6 84 24 80 00 00 00 	movb   $0x74,0x80(%rsp)
  4019b6:	74 
  4019b7:	c6 84 24 81 00 00 00 	movb   $0x72,0x81(%rsp)
  4019be:	72 
  4019bf:	c6 84 24 82 00 00 00 	movb   $0x61,0x82(%rsp)
  4019c6:	61 
  4019c7:	c6 84 24 83 00 00 00 	movb   $0x20,0x83(%rsp)
  4019ce:	20 
  4019cf:	c6 84 24 84 00 00 00 	movb   $0x63,0x84(%rsp)
  4019d6:	63 
  4019d7:	c6 84 24 85 00 00 00 	movb   $0x72,0x85(%rsp)
  4019de:	72 
  4019df:	c6 84 24 86 00 00 00 	movb   $0x65,0x86(%rsp)
  4019e6:	65 
  4019e7:	c6 84 24 87 00 00 00 	movb   $0x64,0x87(%rsp)
  4019ee:	64 
  4019ef:	c6 84 24 88 00 00 00 	movb   $0x69,0x88(%rsp)
  4019f6:	69 
  4019f7:	c6 84 24 89 00 00 00 	movb   $0x74,0x89(%rsp)
  4019fe:	74 
  4019ff:	c6 84 24 8a 00 00 00 	movb   $0x21,0x8a(%rsp)
  401a06:	21 
  401a07:	c6 84 24 8b 00 00 00 	movb   $0x20,0x8b(%rsp)
  401a0e:	20 
  401a0f:	c6 84 24 8c 00 00 00 	movb   $0x61,0x8c(%rsp)
  401a16:	61 
  401a17:	c6 84 24 8d 00 00 00 	movb   $0x6e,0x8d(%rsp)
  401a1e:	6e 
  401a1f:	c6 84 24 8e 00 00 00 	movb   $0x79,0x8e(%rsp)
  401a26:	79 
  401a27:	c6 84 24 8f 00 00 00 	movb   $0x77,0x8f(%rsp)
  401a2e:	77 
  401a2f:	c6 84 24 90 00 00 00 	movb   $0x61,0x90(%rsp)
  401a36:	61 
  401a37:	c6 84 24 91 00 00 00 	movb   $0x79,0x91(%rsp)
  401a3e:	79 
  401a3f:	c6 84 24 92 00 00 00 	movb   $0x73,0x92(%rsp)
  401a46:	73 
  401a47:	c6 84 24 93 00 00 00 	movb   $0x2c,0x93(%rsp)
  401a4e:	2c 
  401a4f:	c6 84 24 94 00 00 00 	movb   $0xa,0x94(%rsp)
  401a56:	0a 
  401a57:	c6 84 24 95 00 00 00 	movb   $0x66,0x95(%rsp)
  401a5e:	66 
  401a5f:	c6 84 24 96 00 00 00 	movb   $0x69,0x96(%rsp)
  401a66:	69 
  401a67:	c6 84 24 97 00 00 00 	movb   $0x6e,0x97(%rsp)
  401a6e:	6e 
  401a6f:	c6 84 24 98 00 00 00 	movb   $0x64,0x98(%rsp)
  401a76:	64 
  401a77:	c6 84 24 99 00 00 00 	movb   $0x69,0x99(%rsp)
  401a7e:	69 
  401a7f:	c6 84 24 9a 00 00 00 	movb   $0x6e,0x9a(%rsp)
  401a86:	6e 
  401a87:	c6 84 24 9b 00 00 00 	movb   $0x67,0x9b(%rsp)
  401a8e:	67 
  401a8f:	c6 84 24 9c 00 00 00 	movb   $0x20,0x9c(%rsp)
  401a96:	20 
  401a97:	c6 84 24 9d 00 00 00 	movb   $0x69,0x9d(%rsp)
  401a9e:	69 
  401a9f:	c6 84 24 9e 00 00 00 	movb   $0x74,0x9e(%rsp)
  401aa6:	74 
  401aa7:	c6 84 24 9f 00 00 00 	movb   $0x20,0x9f(%rsp)
  401aae:	20 
  401aaf:	c6 84 24 a0 00 00 00 	movb   $0x61,0xa0(%rsp)
  401ab6:	61 
  401ab7:	c6 84 24 a1 00 00 00 	movb   $0x6e,0xa1(%rsp)
  401abe:	6e 
  401abf:	c6 84 24 a2 00 00 00 	movb   $0x64,0xa2(%rsp)
  401ac6:	64 
  401ac7:	c6 84 24 a3 00 00 00 	movb   $0x20,0xa3(%rsp)
  401ace:	20 
  401acf:	c6 84 24 a4 00 00 00 	movb   $0x73,0xa4(%rsp)
  401ad6:	73 
  401ad7:	c6 84 24 a5 00 00 00 	movb   $0x6f,0xa5(%rsp)
  401ade:	6f 
  401adf:	c6 84 24 a6 00 00 00 	movb   $0x6c,0xa6(%rsp)
  401ae6:	6c 
  401ae7:	c6 84 24 a7 00 00 00 	movb   $0x76,0xa7(%rsp)
  401aee:	76 
  401aef:	c6 84 24 a8 00 00 00 	movb   $0x69,0xa8(%rsp)
  401af6:	69 
  401af7:	c6 84 24 a9 00 00 00 	movb   $0x6e,0xa9(%rsp)
  401afe:	6e 
  401aff:	c6 84 24 aa 00 00 00 	movb   $0x67,0xaa(%rsp)
  401b06:	67 
  401b07:	c6 84 24 ab 00 00 00 	movb   $0x20,0xab(%rsp)
  401b0e:	20 
  401b0f:	c6 84 24 ac 00 00 00 	movb   $0x69,0xac(%rsp)
  401b16:	69 
  401b17:	c6 84 24 ad 00 00 00 	movb   $0x74,0xad(%rsp)
  401b1e:	74 
  401b1f:	c6 84 24 ae 00 00 00 	movb   $0x20,0xae(%rsp)
  401b26:	20 
  401b27:	c6 84 24 af 00 00 00 	movb   $0x61,0xaf(%rsp)
  401b2e:	61 
  401b2f:	c6 84 24 b0 00 00 00 	movb   $0x72,0xb0(%rsp)
  401b36:	72 
  401b37:	c6 84 24 b1 00 00 00 	movb   $0x65,0xb1(%rsp)
  401b3e:	65 
  401b3f:	c6 84 24 b2 00 00 00 	movb   $0x20,0xb2(%rsp)
  401b46:	20 
  401b47:	c6 84 24 b3 00 00 00 	movb   $0x71,0xb3(%rsp)
  401b4e:	71 
  401b4f:	c6 84 24 b4 00 00 00 	movb   $0x75,0xb4(%rsp)
  401b56:	75 
  401b57:	c6 84 24 b5 00 00 00 	movb   $0x69,0xb5(%rsp)
  401b5e:	69 
  401b5f:	c6 84 24 b6 00 00 00 	movb   $0x74,0xb6(%rsp)
  401b66:	74 
  401b67:	c6 84 24 b7 00 00 00 	movb   $0x65,0xb7(%rsp)
  401b6e:	65 
  401b6f:	c6 84 24 b8 00 00 00 	movb   $0x20,0xb8(%rsp)
  401b76:	20 
  401b77:	c6 84 24 b9 00 00 00 	movb   $0x64,0xb9(%rsp)
  401b7e:	64 
  401b7f:	c6 84 24 ba 00 00 00 	movb   $0x69,0xba(%rsp)
  401b86:	69 
  401b87:	c6 84 24 bb 00 00 00 	movb   $0x66,0xbb(%rsp)
  401b8e:	66 
  401b8f:	c6 84 24 bc 00 00 00 	movb   $0x66,0xbc(%rsp)
  401b96:	66 
  401b97:	c6 84 24 bd 00 00 00 	movb   $0x65,0xbd(%rsp)
  401b9e:	65 
  401b9f:	c6 84 24 be 00 00 00 	movb   $0x72,0xbe(%rsp)
  401ba6:	72 
  401ba7:	c6 84 24 bf 00 00 00 	movb   $0x65,0xbf(%rsp)
  401bae:	65 
  401baf:	c6 84 24 c0 00 00 00 	movb   $0x6e,0xc0(%rsp)
  401bb6:	6e 
  401bb7:	c6 84 24 c1 00 00 00 	movb   $0x74,0xc1(%rsp)
  401bbe:	74 
  401bbf:	c6 84 24 c2 00 00 00 	movb   $0x2e,0xc2(%rsp)
  401bc6:	2e 
  401bc7:	c6 84 24 c3 00 00 00 	movb   $0x2e,0xc3(%rsp)
  401bce:	2e 
  401bcf:	c6 84 24 c4 00 00 00 	movb   $0x2e,0xc4(%rsp)
  401bd6:	2e 
  401bd7:	83 3d 42 2a 20 00 06 	cmpl   $0x6,0x202a42(%rip)        # 604620 <num_input_strings>
  401bde:	75 34                	jne    401c14 <explode_bomb+0x564>
  401be0:	83 3d 35 2a 20 00 21 	cmpl   $0x21,0x202a35(%rip)        # 60461c <last>
  401be7:	75 2b                	jne    401c14 <explode_bomb+0x564>
  401be9:	48 89 e7             	mov    %rsp,%rdi
  401bec:	e8 1f ef ff ff       	callq  400b10 <puts@plt>
  401bf1:	e8 81 fa ff ff       	callq  401677 <phase_defused>
  401bf6:	c7 05 1c 2a 20 00 00 	movl   $0x0,0x202a1c(%rip)        # 60461c <last>
  401bfd:	00 00 00 
  401c00:	b8 00 00 00 00       	mov    $0x0,%eax
  401c05:	e8 18 f6 ff ff       	callq  401222 <s3cret_ph4se>
  401c0a:	bf 00 00 00 00       	mov    $0x0,%edi
  401c0f:	e8 2c f0 ff ff       	callq  400c40 <exit@plt>
  401c14:	bf bd 31 40 00       	mov    $0x4031bd,%edi
  401c19:	e8 f2 ee ff ff       	callq  400b10 <puts@plt>
  401c1e:	bf c6 31 40 00       	mov    $0x4031c6,%edi
  401c23:	e8 e8 ee ff ff       	callq  400b10 <puts@plt>
  401c28:	bf 00 00 00 00       	mov    $0x0,%edi
  401c2d:	e8 81 f9 ff ff       	callq  4015b3 <send_msg>
  401c32:	bf e8 30 40 00       	mov    $0x4030e8,%edi
  401c37:	e8 d4 ee ff ff       	callq  400b10 <puts@plt>
  401c3c:	bf 08 00 00 00       	mov    $0x8,%edi
  401c41:	e8 fa ef ff ff       	callq  400c40 <exit@plt>

0000000000401c46 <read_six_numbers>:
  401c46:	48 83 ec 18          	sub    $0x18,%rsp
  401c4a:	48 89 f2             	mov    %rsi,%rdx
  401c4d:	48 8d 4e 04          	lea    0x4(%rsi),%rcx
  401c51:	48 8d 46 14          	lea    0x14(%rsi),%rax
  401c55:	48 89 44 24 08       	mov    %rax,0x8(%rsp)
  401c5a:	48 8d 46 10          	lea    0x10(%rsi),%rax
  401c5e:	48 89 04 24          	mov    %rax,(%rsp)
  401c62:	4c 8d 4e 0c          	lea    0xc(%rsi),%r9
  401c66:	4c 8d 46 08          	lea    0x8(%rsi),%r8
  401c6a:	be dd 31 40 00       	mov    $0x4031dd,%esi
  401c6f:	b8 00 00 00 00       	mov    $0x0,%eax
  401c74:	e8 77 ef ff ff       	callq  400bf0 <__isoc99_sscanf@plt>
  401c79:	83 f8 05             	cmp    $0x5,%eax
  401c7c:	7f 05                	jg     401c83 <read_six_numbers+0x3d>
  401c7e:	e8 2d fa ff ff       	callq  4016b0 <explode_bomb>
  401c83:	48 83 c4 18          	add    $0x18,%rsp
  401c87:	c3                   	retq   

0000000000401c88 <read_line>:
  401c88:	48 83 ec 08          	sub    $0x8,%rsp
  401c8c:	b8 00 00 00 00       	mov    $0x0,%eax
  401c91:	e8 dc f8 ff ff       	callq  401572 <skip>
  401c96:	48 85 c0             	test   %rax,%rax
  401c99:	75 6e                	jne    401d09 <read_line+0x81>
  401c9b:	48 8b 05 66 29 20 00 	mov    0x202966(%rip),%rax        # 604608 <stdin@@GLIBC_2.2.5>
  401ca2:	48 39 05 7f 29 20 00 	cmp    %rax,0x20297f(%rip)        # 604628 <infile>
  401ca9:	75 14                	jne    401cbf <read_line+0x37>
  401cab:	bf ef 31 40 00       	mov    $0x4031ef,%edi
  401cb0:	e8 5b ee ff ff       	callq  400b10 <puts@plt>
  401cb5:	bf 08 00 00 00       	mov    $0x8,%edi
  401cba:	e8 81 ef ff ff       	callq  400c40 <exit@plt>
  401cbf:	bf 0d 32 40 00       	mov    $0x40320d,%edi
  401cc4:	e8 07 ee ff ff       	callq  400ad0 <getenv@plt>
  401cc9:	48 85 c0             	test   %rax,%rax
  401ccc:	74 0a                	je     401cd8 <read_line+0x50>
  401cce:	bf 00 00 00 00       	mov    $0x0,%edi
  401cd3:	e8 68 ef ff ff       	callq  400c40 <exit@plt>
  401cd8:	48 8b 05 29 29 20 00 	mov    0x202929(%rip),%rax        # 604608 <stdin@@GLIBC_2.2.5>
  401cdf:	48 89 05 42 29 20 00 	mov    %rax,0x202942(%rip)        # 604628 <infile>
  401ce6:	b8 00 00 00 00       	mov    $0x0,%eax
  401ceb:	e8 82 f8 ff ff       	callq  401572 <skip>
  401cf0:	48 85 c0             	test   %rax,%rax
  401cf3:	75 14                	jne    401d09 <read_line+0x81>
  401cf5:	bf ef 31 40 00       	mov    $0x4031ef,%edi
  401cfa:	e8 11 ee ff ff       	callq  400b10 <puts@plt>
  401cff:	bf 00 00 00 00       	mov    $0x0,%edi
  401d04:	e8 37 ef ff ff       	callq  400c40 <exit@plt>
  401d09:	8b 15 11 29 20 00    	mov    0x202911(%rip),%edx        # 604620 <num_input_strings>
  401d0f:	48 63 c2             	movslq %edx,%rax
  401d12:	48 8d 34 80          	lea    (%rax,%rax,4),%rsi
  401d16:	48 c1 e6 04          	shl    $0x4,%rsi
  401d1a:	48 81 c6 40 46 60 00 	add    $0x604640,%rsi
  401d21:	48 89 f7             	mov    %rsi,%rdi
  401d24:	b8 00 00 00 00       	mov    $0x0,%eax
  401d29:	48 c7 c1 ff ff ff ff 	mov    $0xffffffffffffffff,%rcx
  401d30:	f2 ae                	repnz scas %es:(%rdi),%al
  401d32:	48 f7 d1             	not    %rcx
  401d35:	48 83 e9 01          	sub    $0x1,%rcx
  401d39:	83 f9 4e             	cmp    $0x4e,%ecx
  401d3c:	7e 46                	jle    401d84 <read_line+0xfc>
  401d3e:	bf 18 32 40 00       	mov    $0x403218,%edi
  401d43:	e8 c8 ed ff ff       	callq  400b10 <puts@plt>
  401d48:	8b 05 d2 28 20 00    	mov    0x2028d2(%rip),%eax        # 604620 <num_input_strings>
  401d4e:	8d 50 01             	lea    0x1(%rax),%edx
  401d51:	89 15 c9 28 20 00    	mov    %edx,0x2028c9(%rip)        # 604620 <num_input_strings>
  401d57:	48 98                	cltq   
  401d59:	48 6b c0 50          	imul   $0x50,%rax,%rax
  401d5d:	48 bf 2a 2a 2a 74 72 	movabs $0x636e7572742a2a2a,%rdi
  401d64:	75 6e 63 
  401d67:	48 89 b8 40 46 60 00 	mov    %rdi,0x604640(%rax)
  401d6e:	48 bf 61 74 65 64 2a 	movabs $0x2a2a2a64657461,%rdi
  401d75:	2a 2a 00 
  401d78:	48 89 b8 48 46 60 00 	mov    %rdi,0x604648(%rax)
  401d7f:	e8 2c f9 ff ff       	callq  4016b0 <explode_bomb>
  401d84:	83 e9 01             	sub    $0x1,%ecx
  401d87:	48 63 c9             	movslq %ecx,%rcx
  401d8a:	48 63 c2             	movslq %edx,%rax
  401d8d:	48 8d 04 80          	lea    (%rax,%rax,4),%rax
  401d91:	48 c1 e0 04          	shl    $0x4,%rax
  401d95:	c6 84 01 40 46 60 00 	movb   $0x0,0x604640(%rcx,%rax,1)
  401d9c:	00 
  401d9d:	83 c2 01             	add    $0x1,%edx
  401da0:	89 15 7a 28 20 00    	mov    %edx,0x20287a(%rip)        # 604620 <num_input_strings>
  401da6:	48 89 f0             	mov    %rsi,%rax
  401da9:	48 83 c4 08          	add    $0x8,%rsp
  401dad:	c3                   	retq   
  401dae:	66 90                	xchg   %ax,%ax

0000000000401db0 <sigalrm_handler>:
  401db0:	48 83 ec 08          	sub    $0x8,%rsp
  401db4:	ba 00 00 00 00       	mov    $0x0,%edx
  401db9:	be 78 33 40 00       	mov    $0x403378,%esi
  401dbe:	48 8b 3d 4b 28 20 00 	mov    0x20284b(%rip),%rdi        # 604610 <stderr@@GLIBC_2.2.5>
  401dc5:	b8 00 00 00 00       	mov    $0x0,%eax
  401dca:	e8 e1 ed ff ff       	callq  400bb0 <fprintf@plt>
  401dcf:	bf 01 00 00 00       	mov    $0x1,%edi
  401dd4:	e8 67 ee ff ff       	callq  400c40 <exit@plt>

0000000000401dd9 <rio_readlineb>:
  401dd9:	41 57                	push   %r15
  401ddb:	41 56                	push   %r14
  401ddd:	41 55                	push   %r13
  401ddf:	41 54                	push   %r12
  401de1:	55                   	push   %rbp
  401de2:	53                   	push   %rbx
  401de3:	48 83 ec 38          	sub    $0x38,%rsp
  401de7:	49 89 f6             	mov    %rsi,%r14
  401dea:	48 89 54 24 18       	mov    %rdx,0x18(%rsp)
  401def:	48 83 fa 01          	cmp    $0x1,%rdx
  401df3:	0f 86 c2 00 00 00    	jbe    401ebb <rio_readlineb+0xe2>
  401df9:	48 89 fb             	mov    %rdi,%rbx
  401dfc:	41 bd 01 00 00 00    	mov    $0x1,%r13d
  401e02:	4c 8d 67 10          	lea    0x10(%rdi),%r12
  401e06:	eb 2e                	jmp    401e36 <rio_readlineb+0x5d>
  401e08:	ba 00 20 00 00       	mov    $0x2000,%edx
  401e0d:	4c 89 e6             	mov    %r12,%rsi
  401e10:	8b 3b                	mov    (%rbx),%edi
  401e12:	e8 49 ed ff ff       	callq  400b60 <read@plt>
  401e17:	89 43 04             	mov    %eax,0x4(%rbx)
  401e1a:	85 c0                	test   %eax,%eax
  401e1c:	79 0f                	jns    401e2d <rio_readlineb+0x54>
  401e1e:	e8 cd ec ff ff       	callq  400af0 <__errno_location@plt>
  401e23:	83 38 04             	cmpl   $0x4,(%rax)
  401e26:	74 0e                	je     401e36 <rio_readlineb+0x5d>
  401e28:	e9 9d 00 00 00       	jmpq   401eca <rio_readlineb+0xf1>
  401e2d:	85 c0                	test   %eax,%eax
  401e2f:	90                   	nop
  401e30:	74 6c                	je     401e9e <rio_readlineb+0xc5>
  401e32:	4c 89 63 08          	mov    %r12,0x8(%rbx)
  401e36:	8b 6b 04             	mov    0x4(%rbx),%ebp
  401e39:	85 ed                	test   %ebp,%ebp
  401e3b:	7e cb                	jle    401e08 <rio_readlineb+0x2f>
  401e3d:	85 ed                	test   %ebp,%ebp
  401e3f:	41 0f 95 c7          	setne  %r15b
  401e43:	41 0f b6 c7          	movzbl %r15b,%eax
  401e47:	89 44 24 0c          	mov    %eax,0xc(%rsp)
  401e4b:	45 0f b6 ff          	movzbl %r15b,%r15d
  401e4f:	48 8b 4b 08          	mov    0x8(%rbx),%rcx
  401e53:	4c 89 fa             	mov    %r15,%rdx
  401e56:	48 89 4c 24 10       	mov    %rcx,0x10(%rsp)
  401e5b:	48 89 ce             	mov    %rcx,%rsi
  401e5e:	48 8d 7c 24 2f       	lea    0x2f(%rsp),%rdi
  401e63:	e8 68 ed ff ff       	callq  400bd0 <memcpy@plt>
  401e68:	4c 03 7c 24 10       	add    0x10(%rsp),%r15
  401e6d:	4c 89 7b 08          	mov    %r15,0x8(%rbx)
  401e71:	8b 44 24 0c          	mov    0xc(%rsp),%eax
  401e75:	29 c5                	sub    %eax,%ebp
  401e77:	89 6b 04             	mov    %ebp,0x4(%rbx)
  401e7a:	83 f8 01             	cmp    $0x1,%eax
  401e7d:	75 13                	jne    401e92 <rio_readlineb+0xb9>
  401e7f:	49 83 c6 01          	add    $0x1,%r14
  401e83:	0f b6 44 24 2f       	movzbl 0x2f(%rsp),%eax
  401e88:	41 88 46 ff          	mov    %al,-0x1(%r14)
  401e8c:	3c 0a                	cmp    $0xa,%al
  401e8e:	75 18                	jne    401ea8 <rio_readlineb+0xcf>
  401e90:	eb 2f                	jmp    401ec1 <rio_readlineb+0xe8>
  401e92:	83 7c 24 0c 00       	cmpl   $0x0,0xc(%rsp)
  401e97:	75 3a                	jne    401ed3 <rio_readlineb+0xfa>
  401e99:	44 89 e8             	mov    %r13d,%eax
  401e9c:	eb 03                	jmp    401ea1 <rio_readlineb+0xc8>
  401e9e:	44 89 e8             	mov    %r13d,%eax
  401ea1:	83 f8 01             	cmp    $0x1,%eax
  401ea4:	75 1b                	jne    401ec1 <rio_readlineb+0xe8>
  401ea6:	eb 34                	jmp    401edc <rio_readlineb+0x103>
  401ea8:	41 83 c5 01          	add    $0x1,%r13d
  401eac:	49 63 c5             	movslq %r13d,%rax
  401eaf:	48 3b 44 24 18       	cmp    0x18(%rsp),%rax
  401eb4:	73 0b                	jae    401ec1 <rio_readlineb+0xe8>
  401eb6:	e9 7b ff ff ff       	jmpq   401e36 <rio_readlineb+0x5d>
  401ebb:	41 bd 01 00 00 00    	mov    $0x1,%r13d
  401ec1:	41 c6 06 00          	movb   $0x0,(%r14)
  401ec5:	49 63 c5             	movslq %r13d,%rax
  401ec8:	eb 17                	jmp    401ee1 <rio_readlineb+0x108>
  401eca:	48 c7 c0 ff ff ff ff 	mov    $0xffffffffffffffff,%rax
  401ed1:	eb 0e                	jmp    401ee1 <rio_readlineb+0x108>
  401ed3:	48 c7 c0 ff ff ff ff 	mov    $0xffffffffffffffff,%rax
  401eda:	eb 05                	jmp    401ee1 <rio_readlineb+0x108>
  401edc:	b8 00 00 00 00       	mov    $0x0,%eax
  401ee1:	48 83 c4 38          	add    $0x38,%rsp
  401ee5:	5b                   	pop    %rbx
  401ee6:	5d                   	pop    %rbp
  401ee7:	41 5c                	pop    %r12
  401ee9:	41 5d                	pop    %r13
  401eeb:	41 5e                	pop    %r14
  401eed:	41 5f                	pop    %r15
  401eef:	c3                   	retq   

0000000000401ef0 <submitr>:
  401ef0:	41 57                	push   %r15
  401ef2:	41 56                	push   %r14
  401ef4:	41 55                	push   %r13
  401ef6:	41 54                	push   %r12
  401ef8:	55                   	push   %rbp
  401ef9:	53                   	push   %rbx
  401efa:	48 81 ec 68 a0 00 00 	sub    $0xa068,%rsp
  401f01:	48 89 fd             	mov    %rdi,%rbp
  401f04:	41 89 f5             	mov    %esi,%r13d
  401f07:	48 89 54 24 08       	mov    %rdx,0x8(%rsp)
  401f0c:	48 89 4c 24 10       	mov    %rcx,0x10(%rsp)
  401f11:	4c 89 44 24 18       	mov    %r8,0x18(%rsp)
  401f16:	4d 89 cf             	mov    %r9,%r15
  401f19:	48 8b 9c 24 a0 a0 00 	mov    0xa0a0(%rsp),%rbx
  401f20:	00 
  401f21:	4c 8b b4 24 a8 a0 00 	mov    0xa0a8(%rsp),%r14
  401f28:	00 
  401f29:	c7 84 24 3c 20 00 00 	movl   $0x0,0x203c(%rsp)
  401f30:	00 00 00 00 
  401f34:	ba 00 00 00 00       	mov    $0x0,%edx
  401f39:	be 01 00 00 00       	mov    $0x1,%esi
  401f3e:	bf 02 00 00 00       	mov    $0x2,%edi
  401f43:	e8 38 ed ff ff       	callq  400c80 <socket@plt>
  401f48:	41 89 c4             	mov    %eax,%r12d
  401f4b:	85 c0                	test   %eax,%eax
  401f4d:	79 50                	jns    401f9f <submitr+0xaf>
  401f4f:	48 b8 45 72 72 6f 72 	movabs $0x43203a726f727245,%rax
  401f56:	3a 20 43 
  401f59:	49 89 06             	mov    %rax,(%r14)
  401f5c:	48 b8 6c 69 65 6e 74 	movabs $0x6e7520746e65696c,%rax
  401f63:	20 75 6e 
  401f66:	49 89 46 08          	mov    %rax,0x8(%r14)
  401f6a:	48 b8 61 62 6c 65 20 	movabs $0x206f7420656c6261,%rax
  401f71:	74 6f 20 
  401f74:	49 89 46 10          	mov    %rax,0x10(%r14)
  401f78:	48 b8 63 72 65 61 74 	movabs $0x7320657461657263,%rax
  401f7f:	65 20 73 
  401f82:	49 89 46 18          	mov    %rax,0x18(%r14)
  401f86:	41 c7 46 20 6f 63 6b 	movl   $0x656b636f,0x20(%r14)
  401f8d:	65 
  401f8e:	66 41 c7 46 24 74 00 	movw   $0x74,0x24(%r14)
  401f95:	b8 ff ff ff ff       	mov    $0xffffffff,%eax
  401f9a:	e9 f9 06 00 00       	jmpq   402698 <submitr+0x7a8>
  401f9f:	48 89 ef             	mov    %rbp,%rdi
  401fa2:	e8 f9 eb ff ff       	callq  400ba0 <gethostbyname@plt>
  401fa7:	48 85 c0             	test   %rax,%rax
  401faa:	75 6b                	jne    402017 <submitr+0x127>
  401fac:	48 b8 45 72 72 6f 72 	movabs $0x44203a726f727245,%rax
  401fb3:	3a 20 44 
  401fb6:	49 89 06             	mov    %rax,(%r14)
  401fb9:	48 b8 4e 53 20 69 73 	movabs $0x6e7520736920534e,%rax
  401fc0:	20 75 6e 
  401fc3:	49 89 46 08          	mov    %rax,0x8(%r14)
  401fc7:	48 b8 61 62 6c 65 20 	movabs $0x206f7420656c6261,%rax
  401fce:	74 6f 20 
  401fd1:	49 89 46 10          	mov    %rax,0x10(%r14)
  401fd5:	48 b8 72 65 73 6f 6c 	movabs $0x2065766c6f736572,%rax
  401fdc:	76 65 20 
  401fdf:	49 89 46 18          	mov    %rax,0x18(%r14)
  401fe3:	48 b8 73 65 72 76 65 	movabs $0x6120726576726573,%rax
  401fea:	72 20 61 
  401fed:	49 89 46 20          	mov    %rax,0x20(%r14)
  401ff1:	41 c7 46 28 64 64 72 	movl   $0x65726464,0x28(%r14)
  401ff8:	65 
  401ff9:	66 41 c7 46 2c 73 73 	movw   $0x7373,0x2c(%r14)
  402000:	41 c6 46 2e 00       	movb   $0x0,0x2e(%r14)
  402005:	44 89 e7             	mov    %r12d,%edi
  402008:	e8 43 eb ff ff       	callq  400b50 <close@plt>
  40200d:	b8 ff ff ff ff       	mov    $0xffffffff,%eax
  402012:	e9 81 06 00 00       	jmpq   402698 <submitr+0x7a8>
  402017:	48 c7 84 24 50 a0 00 	movq   $0x0,0xa050(%rsp)
  40201e:	00 00 00 00 00 
  402023:	48 c7 84 24 58 a0 00 	movq   $0x0,0xa058(%rsp)
  40202a:	00 00 00 00 00 
  40202f:	66 c7 84 24 50 a0 00 	movw   $0x2,0xa050(%rsp)
  402036:	00 02 00 
  402039:	48 63 50 14          	movslq 0x14(%rax),%rdx
  40203d:	48 8d b4 24 54 a0 00 	lea    0xa054(%rsp),%rsi
  402044:	00 
  402045:	48 8b 40 18          	mov    0x18(%rax),%rax
  402049:	48 8b 38             	mov    (%rax),%rdi
  40204c:	e8 af eb ff ff       	callq  400c00 <bcopy@plt>
  402051:	66 41 c1 cd 08       	ror    $0x8,%r13w
  402056:	66 44 89 ac 24 52 a0 	mov    %r13w,0xa052(%rsp)
  40205d:	00 00 
  40205f:	ba 10 00 00 00       	mov    $0x10,%edx
  402064:	48 8d b4 24 50 a0 00 	lea    0xa050(%rsp),%rsi
  40206b:	00 
  40206c:	44 89 e7             	mov    %r12d,%edi
  40206f:	e8 dc eb ff ff       	callq  400c50 <connect@plt>
  402074:	85 c0                	test   %eax,%eax
  402076:	79 5d                	jns    4020d5 <submitr+0x1e5>
  402078:	48 b8 45 72 72 6f 72 	movabs $0x55203a726f727245,%rax
  40207f:	3a 20 55 
  402082:	49 89 06             	mov    %rax,(%r14)
  402085:	48 b8 6e 61 62 6c 65 	movabs $0x6f7420656c62616e,%rax
  40208c:	20 74 6f 
  40208f:	49 89 46 08          	mov    %rax,0x8(%r14)
  402093:	48 b8 20 63 6f 6e 6e 	movabs $0x7463656e6e6f6320,%rax
  40209a:	65 63 74 
  40209d:	49 89 46 10          	mov    %rax,0x10(%r14)
  4020a1:	48 b8 20 74 6f 20 74 	movabs $0x20656874206f7420,%rax
  4020a8:	68 65 20 
  4020ab:	49 89 46 18          	mov    %rax,0x18(%r14)
  4020af:	41 c7 46 20 73 65 72 	movl   $0x76726573,0x20(%r14)
  4020b6:	76 
  4020b7:	66 41 c7 46 24 65 72 	movw   $0x7265,0x24(%r14)
  4020be:	41 c6 46 26 00       	movb   $0x0,0x26(%r14)
  4020c3:	44 89 e7             	mov    %r12d,%edi
  4020c6:	e8 85 ea ff ff       	callq  400b50 <close@plt>
  4020cb:	b8 ff ff ff ff       	mov    $0xffffffff,%eax
  4020d0:	e9 c3 05 00 00       	jmpq   402698 <submitr+0x7a8>
  4020d5:	48 c7 c2 ff ff ff ff 	mov    $0xffffffffffffffff,%rdx
  4020dc:	48 89 df             	mov    %rbx,%rdi
  4020df:	b8 00 00 00 00       	mov    $0x0,%eax
  4020e4:	48 89 d1             	mov    %rdx,%rcx
  4020e7:	f2 ae                	repnz scas %es:(%rdi),%al
  4020e9:	48 f7 d1             	not    %rcx
  4020ec:	48 89 ce             	mov    %rcx,%rsi
  4020ef:	48 8b 7c 24 08       	mov    0x8(%rsp),%rdi
  4020f4:	48 89 d1             	mov    %rdx,%rcx
  4020f7:	f2 ae                	repnz scas %es:(%rdi),%al
  4020f9:	49 89 c8             	mov    %rcx,%r8
  4020fc:	48 8b 7c 24 10       	mov    0x10(%rsp),%rdi
  402101:	48 89 d1             	mov    %rdx,%rcx
  402104:	f2 ae                	repnz scas %es:(%rdi),%al
  402106:	48 f7 d1             	not    %rcx
  402109:	49 89 c9             	mov    %rcx,%r9
  40210c:	4c 89 ff             	mov    %r15,%rdi
  40210f:	48 89 d1             	mov    %rdx,%rcx
  402112:	f2 ae                	repnz scas %es:(%rdi),%al
  402114:	4d 29 c1             	sub    %r8,%r9
  402117:	49 29 c9             	sub    %rcx,%r9
  40211a:	48 8d 44 76 fd       	lea    -0x3(%rsi,%rsi,2),%rax
  40211f:	49 8d 44 01 7b       	lea    0x7b(%r9,%rax,1),%rax
  402124:	48 3d 00 20 00 00    	cmp    $0x2000,%rax
  40212a:	76 73                	jbe    40219f <submitr+0x2af>
  40212c:	48 b8 45 72 72 6f 72 	movabs $0x52203a726f727245,%rax
  402133:	3a 20 52 
  402136:	49 89 06             	mov    %rax,(%r14)
  402139:	48 b8 65 73 75 6c 74 	movabs $0x747320746c757365,%rax
  402140:	20 73 74 
  402143:	49 89 46 08          	mov    %rax,0x8(%r14)
  402147:	48 b8 72 69 6e 67 20 	movabs $0x6f6f7420676e6972,%rax
  40214e:	74 6f 6f 
  402151:	49 89 46 10          	mov    %rax,0x10(%r14)
  402155:	48 b8 20 6c 61 72 67 	movabs $0x202e656772616c20,%rax
  40215c:	65 2e 20 
  40215f:	49 89 46 18          	mov    %rax,0x18(%r14)
  402163:	48 b8 49 6e 63 72 65 	movabs $0x6573616572636e49,%rax
  40216a:	61 73 65 
  40216d:	49 89 46 20          	mov    %rax,0x20(%r14)
  402171:	48 b8 20 53 55 42 4d 	movabs $0x5254494d42555320,%rax
  402178:	49 54 52 
  40217b:	49 89 46 28          	mov    %rax,0x28(%r14)
  40217f:	48 b8 5f 4d 41 58 42 	movabs $0x46554258414d5f,%rax
  402186:	55 46 00 
  402189:	49 89 46 30          	mov    %rax,0x30(%r14)
  40218d:	44 89 e7             	mov    %r12d,%edi
  402190:	e8 bb e9 ff ff       	callq  400b50 <close@plt>
  402195:	b8 ff ff ff ff       	mov    $0xffffffff,%eax
  40219a:	e9 f9 04 00 00       	jmpq   402698 <submitr+0x7a8>
  40219f:	48 8d 94 24 40 40 00 	lea    0x4040(%rsp),%rdx
  4021a6:	00 
  4021a7:	b9 00 04 00 00       	mov    $0x400,%ecx
  4021ac:	b8 00 00 00 00       	mov    $0x0,%eax
  4021b1:	48 89 d7             	mov    %rdx,%rdi
  4021b4:	f3 48 ab             	rep stos %rax,%es:(%rdi)
  4021b7:	48 89 df             	mov    %rbx,%rdi
  4021ba:	48 c7 c1 ff ff ff ff 	mov    $0xffffffffffffffff,%rcx
  4021c1:	f2 ae                	repnz scas %es:(%rdi),%al
  4021c3:	48 f7 d1             	not    %rcx
  4021c6:	48 83 e9 01          	sub    $0x1,%rcx
  4021ca:	85 c9                	test   %ecx,%ecx
  4021cc:	0f 84 d3 03 00 00    	je     4025a5 <submitr+0x6b5>
  4021d2:	8d 41 ff             	lea    -0x1(%rcx),%eax
  4021d5:	4c 8d 6c 03 01       	lea    0x1(%rbx,%rax,1),%r13
  4021da:	48 89 d5             	mov    %rdx,%rbp
  4021dd:	0f b6 13             	movzbl (%rbx),%edx
  4021e0:	80 fa 2a             	cmp    $0x2a,%dl
  4021e3:	74 1f                	je     402204 <submitr+0x314>
  4021e5:	8d 42 d3             	lea    -0x2d(%rdx),%eax
  4021e8:	3c 01                	cmp    $0x1,%al
  4021ea:	76 18                	jbe    402204 <submitr+0x314>
  4021ec:	80 fa 5f             	cmp    $0x5f,%dl
  4021ef:	74 13                	je     402204 <submitr+0x314>
  4021f1:	8d 42 d0             	lea    -0x30(%rdx),%eax
  4021f4:	3c 09                	cmp    $0x9,%al
  4021f6:	76 0c                	jbe    402204 <submitr+0x314>
  4021f8:	89 d0                	mov    %edx,%eax
  4021fa:	83 e0 df             	and    $0xffffffdf,%eax
  4021fd:	83 e8 41             	sub    $0x41,%eax
  402200:	3c 19                	cmp    $0x19,%al
  402202:	77 09                	ja     40220d <submitr+0x31d>
  402204:	48 8d 45 01          	lea    0x1(%rbp),%rax
  402208:	88 55 00             	mov    %dl,0x0(%rbp)
  40220b:	eb 52                	jmp    40225f <submitr+0x36f>
  40220d:	80 fa 20             	cmp    $0x20,%dl
  402210:	75 0a                	jne    40221c <submitr+0x32c>
  402212:	48 8d 45 01          	lea    0x1(%rbp),%rax
  402216:	c6 45 00 2b          	movb   $0x2b,0x0(%rbp)
  40221a:	eb 43                	jmp    40225f <submitr+0x36f>
  40221c:	8d 42 e0             	lea    -0x20(%rdx),%eax
  40221f:	3c 5f                	cmp    $0x5f,%al
  402221:	76 09                	jbe    40222c <submitr+0x33c>
  402223:	80 fa 09             	cmp    $0x9,%dl
  402226:	0f 85 e4 03 00 00    	jne    402610 <submitr+0x720>
  40222c:	0f b6 d2             	movzbl %dl,%edx
  40222f:	be 50 34 40 00       	mov    $0x403450,%esi
  402234:	48 8d 7c 24 20       	lea    0x20(%rsp),%rdi
  402239:	b8 00 00 00 00       	mov    $0x0,%eax
  40223e:	e8 ed e9 ff ff       	callq  400c30 <sprintf@plt>
  402243:	0f b6 44 24 20       	movzbl 0x20(%rsp),%eax
  402248:	88 45 00             	mov    %al,0x0(%rbp)
  40224b:	0f b6 44 24 21       	movzbl 0x21(%rsp),%eax
  402250:	88 45 01             	mov    %al,0x1(%rbp)
  402253:	48 8d 45 03          	lea    0x3(%rbp),%rax
  402257:	0f b6 54 24 22       	movzbl 0x22(%rsp),%edx
  40225c:	88 55 02             	mov    %dl,0x2(%rbp)
  40225f:	48 83 c3 01          	add    $0x1,%rbx
  402263:	4c 39 eb             	cmp    %r13,%rbx
  402266:	0f 84 39 03 00 00    	je     4025a5 <submitr+0x6b5>
  40226c:	48 89 c5             	mov    %rax,%rbp
  40226f:	e9 69 ff ff ff       	jmpq   4021dd <submitr+0x2ed>
  402274:	48 89 da             	mov    %rbx,%rdx
  402277:	48 89 ee             	mov    %rbp,%rsi
  40227a:	44 89 e7             	mov    %r12d,%edi
  40227d:	e8 9e e8 ff ff       	callq  400b20 <write@plt>
  402282:	48 85 c0             	test   %rax,%rax
  402285:	7f 10                	jg     402297 <submitr+0x3a7>
  402287:	e8 64 e8 ff ff       	callq  400af0 <__errno_location@plt>
  40228c:	83 38 04             	cmpl   $0x4,(%rax)
  40228f:	90                   	nop
  402290:	75 12                	jne    4022a4 <submitr+0x3b4>
  402292:	b8 00 00 00 00       	mov    $0x0,%eax
  402297:	48 01 c5             	add    %rax,%rbp
  40229a:	48 29 c3             	sub    %rax,%rbx
  40229d:	75 d5                	jne    402274 <submitr+0x384>
  40229f:	4d 85 ed             	test   %r13,%r13
  4022a2:	79 5f                	jns    402303 <submitr+0x413>
  4022a4:	48 b8 45 72 72 6f 72 	movabs $0x43203a726f727245,%rax
  4022ab:	3a 20 43 
  4022ae:	49 89 06             	mov    %rax,(%r14)
  4022b1:	48 b8 6c 69 65 6e 74 	movabs $0x6e7520746e65696c,%rax
  4022b8:	20 75 6e 
  4022bb:	49 89 46 08          	mov    %rax,0x8(%r14)
  4022bf:	48 b8 61 62 6c 65 20 	movabs $0x206f7420656c6261,%rax
  4022c6:	74 6f 20 
  4022c9:	49 89 46 10          	mov    %rax,0x10(%r14)
  4022cd:	48 b8 77 72 69 74 65 	movabs $0x6f74206574697277,%rax
  4022d4:	20 74 6f 
  4022d7:	49 89 46 18          	mov    %rax,0x18(%r14)
  4022db:	48 b8 20 74 68 65 20 	movabs $0x7265732065687420,%rax
  4022e2:	73 65 72 
  4022e5:	49 89 46 20          	mov    %rax,0x20(%r14)
  4022e9:	41 c7 46 28 76 65 72 	movl   $0x726576,0x28(%r14)
  4022f0:	00 
  4022f1:	44 89 e7             	mov    %r12d,%edi
  4022f4:	e8 57 e8 ff ff       	callq  400b50 <close@plt>
  4022f9:	b8 ff ff ff ff       	mov    $0xffffffff,%eax
  4022fe:	e9 95 03 00 00       	jmpq   402698 <submitr+0x7a8>
  402303:	44 89 a4 24 40 80 00 	mov    %r12d,0x8040(%rsp)
  40230a:	00 
  40230b:	c7 84 24 44 80 00 00 	movl   $0x0,0x8044(%rsp)
  402312:	00 00 00 00 
  402316:	48 8d 84 24 50 80 00 	lea    0x8050(%rsp),%rax
  40231d:	00 
  40231e:	48 89 84 24 48 80 00 	mov    %rax,0x8048(%rsp)
  402325:	00 
  402326:	ba 00 20 00 00       	mov    $0x2000,%edx
  40232b:	48 8d b4 24 40 60 00 	lea    0x6040(%rsp),%rsi
  402332:	00 
  402333:	48 8d bc 24 40 80 00 	lea    0x8040(%rsp),%rdi
  40233a:	00 
  40233b:	e8 99 fa ff ff       	callq  401dd9 <rio_readlineb>
  402340:	48 85 c0             	test   %rax,%rax
  402343:	7f 74                	jg     4023b9 <submitr+0x4c9>
  402345:	48 b8 45 72 72 6f 72 	movabs $0x43203a726f727245,%rax
  40234c:	3a 20 43 
  40234f:	49 89 06             	mov    %rax,(%r14)
  402352:	48 b8 6c 69 65 6e 74 	movabs $0x6e7520746e65696c,%rax
  402359:	20 75 6e 
  40235c:	49 89 46 08          	mov    %rax,0x8(%r14)
  402360:	48 b8 61 62 6c 65 20 	movabs $0x206f7420656c6261,%rax
  402367:	74 6f 20 
  40236a:	49 89 46 10          	mov    %rax,0x10(%r14)
  40236e:	48 b8 72 65 61 64 20 	movabs $0x7269662064616572,%rax
  402375:	66 69 72 
  402378:	49 89 46 18          	mov    %rax,0x18(%r14)
  40237c:	48 b8 73 74 20 68 65 	movabs $0x6564616568207473,%rax
  402383:	61 64 65 
  402386:	49 89 46 20          	mov    %rax,0x20(%r14)
  40238a:	48 b8 72 20 66 72 6f 	movabs $0x73206d6f72662072,%rax
  402391:	6d 20 73 
  402394:	49 89 46 28          	mov    %rax,0x28(%r14)
  402398:	41 c7 46 30 65 72 76 	movl   $0x65767265,0x30(%r14)
  40239f:	65 
  4023a0:	66 41 c7 46 34 72 00 	movw   $0x72,0x34(%r14)
  4023a7:	44 89 e7             	mov    %r12d,%edi
  4023aa:	e8 a1 e7 ff ff       	callq  400b50 <close@plt>
  4023af:	b8 ff ff ff ff       	mov    $0xffffffff,%eax
  4023b4:	e9 df 02 00 00       	jmpq   402698 <submitr+0x7a8>
  4023b9:	4c 8d 44 24 30       	lea    0x30(%rsp),%r8
  4023be:	48 8d 8c 24 3c 20 00 	lea    0x203c(%rsp),%rcx
  4023c5:	00 
  4023c6:	48 8d 94 24 40 20 00 	lea    0x2040(%rsp),%rdx
  4023cd:	00 
  4023ce:	be 57 34 40 00       	mov    $0x403457,%esi
  4023d3:	48 8d bc 24 40 60 00 	lea    0x6040(%rsp),%rdi
  4023da:	00 
  4023db:	b8 00 00 00 00       	mov    $0x0,%eax
  4023e0:	e8 0b e8 ff ff       	callq  400bf0 <__isoc99_sscanf@plt>
  4023e5:	8b 94 24 3c 20 00 00 	mov    0x203c(%rsp),%edx
  4023ec:	81 fa c8 00 00 00    	cmp    $0xc8,%edx
  4023f2:	0f 84 b2 00 00 00    	je     4024aa <submitr+0x5ba>
  4023f8:	48 8d 4c 24 30       	lea    0x30(%rsp),%rcx
  4023fd:	be a0 33 40 00       	mov    $0x4033a0,%esi
  402402:	4c 89 f7             	mov    %r14,%rdi
  402405:	b8 00 00 00 00       	mov    $0x0,%eax
  40240a:	e8 21 e8 ff ff       	callq  400c30 <sprintf@plt>
  40240f:	44 89 e7             	mov    %r12d,%edi
  402412:	e8 39 e7 ff ff       	callq  400b50 <close@plt>
  402417:	b8 ff ff ff ff       	mov    $0xffffffff,%eax
  40241c:	e9 77 02 00 00       	jmpq   402698 <submitr+0x7a8>
  402421:	ba 00 20 00 00       	mov    $0x2000,%edx
  402426:	48 8d b4 24 40 60 00 	lea    0x6040(%rsp),%rsi
  40242d:	00 
  40242e:	48 8d bc 24 40 80 00 	lea    0x8040(%rsp),%rdi
  402435:	00 
  402436:	e8 9e f9 ff ff       	callq  401dd9 <rio_readlineb>
  40243b:	48 85 c0             	test   %rax,%rax
  40243e:	7f 6a                	jg     4024aa <submitr+0x5ba>
  402440:	48 b8 45 72 72 6f 72 	movabs $0x43203a726f727245,%rax
  402447:	3a 20 43 
  40244a:	49 89 06             	mov    %rax,(%r14)
  40244d:	48 b8 6c 69 65 6e 74 	movabs $0x6e7520746e65696c,%rax
  402454:	20 75 6e 
  402457:	49 89 46 08          	mov    %rax,0x8(%r14)
  40245b:	48 b8 61 62 6c 65 20 	movabs $0x206f7420656c6261,%rax
  402462:	74 6f 20 
  402465:	49 89 46 10          	mov    %rax,0x10(%r14)
  402469:	48 b8 72 65 61 64 20 	movabs $0x6165682064616572,%rax
  402470:	68 65 61 
  402473:	49 89 46 18          	mov    %rax,0x18(%r14)
  402477:	48 b8 64 65 72 73 20 	movabs $0x6f72662073726564,%rax
  40247e:	66 72 6f 
  402481:	49 89 46 20          	mov    %rax,0x20(%r14)
  402485:	48 b8 6d 20 73 65 72 	movabs $0x726576726573206d,%rax
  40248c:	76 65 72 
  40248f:	49 89 46 28          	mov    %rax,0x28(%r14)
  402493:	41 c6 46 30 00       	movb   $0x0,0x30(%r14)
  402498:	44 89 e7             	mov    %r12d,%edi
  40249b:	e8 b0 e6 ff ff       	callq  400b50 <close@plt>
  4024a0:	b8 ff ff ff ff       	mov    $0xffffffff,%eax
  4024a5:	e9 ee 01 00 00       	jmpq   402698 <submitr+0x7a8>
  4024aa:	80 bc 24 40 60 00 00 	cmpb   $0xd,0x6040(%rsp)
  4024b1:	0d 
  4024b2:	0f 85 69 ff ff ff    	jne    402421 <submitr+0x531>
  4024b8:	80 bc 24 41 60 00 00 	cmpb   $0xa,0x6041(%rsp)
  4024bf:	0a 
  4024c0:	0f 85 5b ff ff ff    	jne    402421 <submitr+0x531>
  4024c6:	80 bc 24 42 60 00 00 	cmpb   $0x0,0x6042(%rsp)
  4024cd:	00 
  4024ce:	0f 85 4d ff ff ff    	jne    402421 <submitr+0x531>
  4024d4:	ba 00 20 00 00       	mov    $0x2000,%edx
  4024d9:	48 8d b4 24 40 60 00 	lea    0x6040(%rsp),%rsi
  4024e0:	00 
  4024e1:	48 8d bc 24 40 80 00 	lea    0x8040(%rsp),%rdi
  4024e8:	00 
  4024e9:	e8 eb f8 ff ff       	callq  401dd9 <rio_readlineb>
  4024ee:	48 85 c0             	test   %rax,%rax
  4024f1:	7f 73                	jg     402566 <submitr+0x676>
  4024f3:	48 b8 45 72 72 6f 72 	movabs $0x43203a726f727245,%rax
  4024fa:	3a 20 43 
  4024fd:	49 89 06             	mov    %rax,(%r14)
  402500:	48 b8 6c 69 65 6e 74 	movabs $0x6e7520746e65696c,%rax
  402507:	20 75 6e 
  40250a:	49 89 46 08          	mov    %rax,0x8(%r14)
  40250e:	48 b8 61 62 6c 65 20 	movabs $0x206f7420656c6261,%rax
  402515:	74 6f 20 
  402518:	49 89 46 10          	mov    %rax,0x10(%r14)
  40251c:	48 b8 72 65 61 64 20 	movabs $0x6174732064616572,%rax
  402523:	73 74 61 
  402526:	49 89 46 18          	mov    %rax,0x18(%r14)
  40252a:	48 b8 74 75 73 20 6d 	movabs $0x7373656d20737574,%rax
  402531:	65 73 73 
  402534:	49 89 46 20          	mov    %rax,0x20(%r14)
  402538:	48 b8 61 67 65 20 66 	movabs $0x6d6f726620656761,%rax
  40253f:	72 6f 6d 
  402542:	49 89 46 28          	mov    %rax,0x28(%r14)
  402546:	48 b8 20 73 65 72 76 	movabs $0x72657672657320,%rax
  40254d:	65 72 00 
  402550:	49 89 46 30          	mov    %rax,0x30(%r14)
  402554:	44 89 e7             	mov    %r12d,%edi
  402557:	e8 f4 e5 ff ff       	callq  400b50 <close@plt>
  40255c:	b8 ff ff ff ff       	mov    $0xffffffff,%eax
  402561:	e9 32 01 00 00       	jmpq   402698 <submitr+0x7a8>
  402566:	48 8d b4 24 40 60 00 	lea    0x6040(%rsp),%rsi
  40256d:	00 
  40256e:	4c 89 f7             	mov    %r14,%rdi
  402571:	e8 8a e5 ff ff       	callq  400b00 <strcpy@plt>
  402576:	44 89 e7             	mov    %r12d,%edi
  402579:	e8 d2 e5 ff ff       	callq  400b50 <close@plt>
  40257e:	41 0f b6 06          	movzbl (%r14),%eax
  402582:	83 e8 4f             	sub    $0x4f,%eax
  402585:	75 0f                	jne    402596 <submitr+0x6a6>
  402587:	41 0f b6 46 01       	movzbl 0x1(%r14),%eax
  40258c:	83 e8 4b             	sub    $0x4b,%eax
  40258f:	75 05                	jne    402596 <submitr+0x6a6>
  402591:	41 0f b6 46 02       	movzbl 0x2(%r14),%eax
  402596:	85 c0                	test   %eax,%eax
  402598:	0f 95 c0             	setne  %al
  40259b:	0f b6 c0             	movzbl %al,%eax
  40259e:	f7 d8                	neg    %eax
  4025a0:	e9 f3 00 00 00       	jmpq   402698 <submitr+0x7a8>
  4025a5:	48 8d 84 24 40 40 00 	lea    0x4040(%rsp),%rax
  4025ac:	00 
  4025ad:	48 89 04 24          	mov    %rax,(%rsp)
  4025b1:	4d 89 f9             	mov    %r15,%r9
  4025b4:	4c 8b 44 24 18       	mov    0x18(%rsp),%r8
  4025b9:	48 8b 4c 24 10       	mov    0x10(%rsp),%rcx
  4025be:	48 8b 54 24 08       	mov    0x8(%rsp),%rdx
  4025c3:	be d0 33 40 00       	mov    $0x4033d0,%esi
  4025c8:	48 8d bc 24 40 60 00 	lea    0x6040(%rsp),%rdi
  4025cf:	00 
  4025d0:	b8 00 00 00 00       	mov    $0x0,%eax
  4025d5:	e8 56 e6 ff ff       	callq  400c30 <sprintf@plt>
  4025da:	48 8d bc 24 40 60 00 	lea    0x6040(%rsp),%rdi
  4025e1:	00 
  4025e2:	b8 00 00 00 00       	mov    $0x0,%eax
  4025e7:	48 c7 c1 ff ff ff ff 	mov    $0xffffffffffffffff,%rcx
  4025ee:	f2 ae                	repnz scas %es:(%rdi),%al
  4025f0:	48 f7 d1             	not    %rcx
  4025f3:	48 83 e9 01          	sub    $0x1,%rcx
  4025f7:	49 89 cd             	mov    %rcx,%r13
  4025fa:	0f 84 03 fd ff ff    	je     402303 <submitr+0x413>
  402600:	48 89 cb             	mov    %rcx,%rbx
  402603:	48 8d ac 24 40 60 00 	lea    0x6040(%rsp),%rbp
  40260a:	00 
  40260b:	e9 64 fc ff ff       	jmpq   402274 <submitr+0x384>
  402610:	48 b8 45 72 72 6f 72 	movabs $0x52203a726f727245,%rax
  402617:	3a 20 52 
  40261a:	49 89 06             	mov    %rax,(%r14)
  40261d:	48 b8 65 73 75 6c 74 	movabs $0x747320746c757365,%rax
  402624:	20 73 74 
  402627:	49 89 46 08          	mov    %rax,0x8(%r14)
  40262b:	48 b8 72 69 6e 67 20 	movabs $0x6e6f6320676e6972,%rax
  402632:	63 6f 6e 
  402635:	49 89 46 10          	mov    %rax,0x10(%r14)
  402639:	48 b8 74 61 69 6e 73 	movabs $0x6e6120736e696174,%rax
  402640:	20 61 6e 
  402643:	49 89 46 18          	mov    %rax,0x18(%r14)
  402647:	48 b8 20 69 6c 6c 65 	movabs $0x6c6167656c6c6920,%rax
  40264e:	67 61 6c 
  402651:	49 89 46 20          	mov    %rax,0x20(%r14)
  402655:	48 b8 20 6f 72 20 75 	movabs $0x72706e7520726f20,%rax
  40265c:	6e 70 72 
  40265f:	49 89 46 28          	mov    %rax,0x28(%r14)
  402663:	48 b8 69 6e 74 61 62 	movabs $0x20656c6261746e69,%rax
  40266a:	6c 65 20 
  40266d:	49 89 46 30          	mov    %rax,0x30(%r14)
  402671:	48 b8 63 68 61 72 61 	movabs $0x6574636172616863,%rax
  402678:	63 74 65 
  40267b:	49 89 46 38          	mov    %rax,0x38(%r14)
  40267f:	66 41 c7 46 40 72 2e 	movw   $0x2e72,0x40(%r14)
  402686:	41 c6 46 42 00       	movb   $0x0,0x42(%r14)
  40268b:	44 89 e7             	mov    %r12d,%edi
  40268e:	e8 bd e4 ff ff       	callq  400b50 <close@plt>
  402693:	b8 ff ff ff ff       	mov    $0xffffffff,%eax
  402698:	48 81 c4 68 a0 00 00 	add    $0xa068,%rsp
  40269f:	5b                   	pop    %rbx
  4026a0:	5d                   	pop    %rbp
  4026a1:	41 5c                	pop    %r12
  4026a3:	41 5d                	pop    %r13
  4026a5:	41 5e                	pop    %r14
  4026a7:	41 5f                	pop    %r15
  4026a9:	c3                   	retq   

00000000004026aa <init_timeout>:
  4026aa:	53                   	push   %rbx
  4026ab:	89 fb                	mov    %edi,%ebx
  4026ad:	85 ff                	test   %edi,%edi
  4026af:	74 1e                	je     4026cf <init_timeout+0x25>
  4026b1:	be b0 1d 40 00       	mov    $0x401db0,%esi
  4026b6:	bf 0e 00 00 00       	mov    $0xe,%edi
  4026bb:	e8 d0 e4 ff ff       	callq  400b90 <signal@plt>
  4026c0:	85 db                	test   %ebx,%ebx
  4026c2:	bf 00 00 00 00       	mov    $0x0,%edi
  4026c7:	0f 49 fb             	cmovns %ebx,%edi
  4026ca:	e8 71 e4 ff ff       	callq  400b40 <alarm@plt>
  4026cf:	5b                   	pop    %rbx
  4026d0:	c3                   	retq   

00000000004026d1 <init_driver>:
  4026d1:	55                   	push   %rbp
  4026d2:	53                   	push   %rbx
  4026d3:	48 83 ec 18          	sub    $0x18,%rsp
  4026d7:	48 89 fd             	mov    %rdi,%rbp
  4026da:	be 01 00 00 00       	mov    $0x1,%esi
  4026df:	bf 0d 00 00 00       	mov    $0xd,%edi
  4026e4:	e8 a7 e4 ff ff       	callq  400b90 <signal@plt>
  4026e9:	be 01 00 00 00       	mov    $0x1,%esi
  4026ee:	bf 1d 00 00 00       	mov    $0x1d,%edi
  4026f3:	e8 98 e4 ff ff       	callq  400b90 <signal@plt>
  4026f8:	be 01 00 00 00       	mov    $0x1,%esi
  4026fd:	bf 1d 00 00 00       	mov    $0x1d,%edi
  402702:	e8 89 e4 ff ff       	callq  400b90 <signal@plt>
  402707:	ba 00 00 00 00       	mov    $0x0,%edx
  40270c:	be 01 00 00 00       	mov    $0x1,%esi
  402711:	bf 02 00 00 00       	mov    $0x2,%edi
  402716:	e8 65 e5 ff ff       	callq  400c80 <socket@plt>
  40271b:	89 c3                	mov    %eax,%ebx
  40271d:	85 c0                	test   %eax,%eax
  40271f:	79 4f                	jns    402770 <init_driver+0x9f>
  402721:	48 b8 45 72 72 6f 72 	movabs $0x43203a726f727245,%rax
  402728:	3a 20 43 
  40272b:	48 89 45 00          	mov    %rax,0x0(%rbp)
  40272f:	48 b8 6c 69 65 6e 74 	movabs $0x6e7520746e65696c,%rax
  402736:	20 75 6e 
  402739:	48 89 45 08          	mov    %rax,0x8(%rbp)
  40273d:	48 b8 61 62 6c 65 20 	movabs $0x206f7420656c6261,%rax
  402744:	74 6f 20 
  402747:	48 89 45 10          	mov    %rax,0x10(%rbp)
  40274b:	48 b8 63 72 65 61 74 	movabs $0x7320657461657263,%rax
  402752:	65 20 73 
  402755:	48 89 45 18          	mov    %rax,0x18(%rbp)
  402759:	c7 45 20 6f 63 6b 65 	movl   $0x656b636f,0x20(%rbp)
  402760:	66 c7 45 24 74 00    	movw   $0x74,0x24(%rbp)
  402766:	b8 ff ff ff ff       	mov    $0xffffffff,%eax
  40276b:	e9 f8 00 00 00       	jmpq   402868 <init_driver+0x197>
  402770:	bf 68 34 40 00       	mov    $0x403468,%edi
  402775:	e8 26 e4 ff ff       	callq  400ba0 <gethostbyname@plt>
  40277a:	48 85 c0             	test   %rax,%rax
  40277d:	75 68                	jne    4027e7 <init_driver+0x116>
  40277f:	48 b8 45 72 72 6f 72 	movabs $0x44203a726f727245,%rax
  402786:	3a 20 44 
  402789:	48 89 45 00          	mov    %rax,0x0(%rbp)
  40278d:	48 b8 4e 53 20 69 73 	movabs $0x6e7520736920534e,%rax
  402794:	20 75 6e 
  402797:	48 89 45 08          	mov    %rax,0x8(%rbp)
  40279b:	48 b8 61 62 6c 65 20 	movabs $0x206f7420656c6261,%rax
  4027a2:	74 6f 20 
  4027a5:	48 89 45 10          	mov    %rax,0x10(%rbp)
  4027a9:	48 b8 72 65 73 6f 6c 	movabs $0x2065766c6f736572,%rax
  4027b0:	76 65 20 
  4027b3:	48 89 45 18          	mov    %rax,0x18(%rbp)
  4027b7:	48 b8 73 65 72 76 65 	movabs $0x6120726576726573,%rax
  4027be:	72 20 61 
  4027c1:	48 89 45 20          	mov    %rax,0x20(%rbp)
  4027c5:	c7 45 28 64 64 72 65 	movl   $0x65726464,0x28(%rbp)
  4027cc:	66 c7 45 2c 73 73    	movw   $0x7373,0x2c(%rbp)
  4027d2:	c6 45 2e 00          	movb   $0x0,0x2e(%rbp)
  4027d6:	89 df                	mov    %ebx,%edi
  4027d8:	e8 73 e3 ff ff       	callq  400b50 <close@plt>
  4027dd:	b8 ff ff ff ff       	mov    $0xffffffff,%eax
  4027e2:	e9 81 00 00 00       	jmpq   402868 <init_driver+0x197>
  4027e7:	48 c7 04 24 00 00 00 	movq   $0x0,(%rsp)
  4027ee:	00 
  4027ef:	48 c7 44 24 08 00 00 	movq   $0x0,0x8(%rsp)
  4027f6:	00 00 
  4027f8:	66 c7 04 24 02 00    	movw   $0x2,(%rsp)
  4027fe:	48 63 50 14          	movslq 0x14(%rax),%rdx
  402802:	48 8d 74 24 04       	lea    0x4(%rsp),%rsi
  402807:	48 8b 40 18          	mov    0x18(%rax),%rax
  40280b:	48 8b 38             	mov    (%rax),%rdi
  40280e:	e8 ed e3 ff ff       	callq  400c00 <bcopy@plt>
  402813:	66 c7 44 24 02 3b 6e 	movw   $0x6e3b,0x2(%rsp)
  40281a:	ba 10 00 00 00       	mov    $0x10,%edx
  40281f:	48 89 e6             	mov    %rsp,%rsi
  402822:	89 df                	mov    %ebx,%edi
  402824:	e8 27 e4 ff ff       	callq  400c50 <connect@plt>
  402829:	85 c0                	test   %eax,%eax
  40282b:	79 25                	jns    402852 <init_driver+0x181>
  40282d:	ba 68 34 40 00       	mov    $0x403468,%edx
  402832:	be 28 34 40 00       	mov    $0x403428,%esi
  402837:	48 89 ef             	mov    %rbp,%rdi
  40283a:	b8 00 00 00 00       	mov    $0x0,%eax
  40283f:	e8 ec e3 ff ff       	callq  400c30 <sprintf@plt>
  402844:	89 df                	mov    %ebx,%edi
  402846:	e8 05 e3 ff ff       	callq  400b50 <close@plt>
  40284b:	b8 ff ff ff ff       	mov    $0xffffffff,%eax
  402850:	eb 16                	jmp    402868 <init_driver+0x197>
  402852:	89 df                	mov    %ebx,%edi
  402854:	e8 f7 e2 ff ff       	callq  400b50 <close@plt>
  402859:	66 c7 45 00 4f 4b    	movw   $0x4b4f,0x0(%rbp)
  40285f:	c6 45 02 00          	movb   $0x0,0x2(%rbp)
  402863:	b8 00 00 00 00       	mov    $0x0,%eax
  402868:	48 83 c4 18          	add    $0x18,%rsp
  40286c:	5b                   	pop    %rbx
  40286d:	5d                   	pop    %rbp
  40286e:	c3                   	retq   

000000000040286f <driver_post>:
  40286f:	53                   	push   %rbx
  402870:	48 83 ec 10          	sub    $0x10,%rsp
  402874:	4c 89 c3             	mov    %r8,%rbx
  402877:	85 c9                	test   %ecx,%ecx
  402879:	74 22                	je     40289d <driver_post+0x2e>
  40287b:	48 89 d6             	mov    %rdx,%rsi
  40287e:	bf 7b 34 40 00       	mov    $0x40347b,%edi
  402883:	b8 00 00 00 00       	mov    $0x0,%eax
  402888:	e8 a3 e2 ff ff       	callq  400b30 <printf@plt>
  40288d:	66 c7 03 4f 4b       	movw   $0x4b4f,(%rbx)
  402892:	c6 43 02 00          	movb   $0x0,0x2(%rbx)
  402896:	b8 00 00 00 00       	mov    $0x0,%eax
  40289b:	eb 43                	jmp    4028e0 <driver_post+0x71>
  40289d:	48 85 ff             	test   %rdi,%rdi
  4028a0:	74 30                	je     4028d2 <driver_post+0x63>
  4028a2:	80 3f 00             	cmpb   $0x0,(%rdi)
  4028a5:	74 2b                	je     4028d2 <driver_post+0x63>
  4028a7:	4c 89 44 24 08       	mov    %r8,0x8(%rsp)
  4028ac:	48 89 14 24          	mov    %rdx,(%rsp)
  4028b0:	41 b9 92 34 40 00    	mov    $0x403492,%r9d
  4028b6:	49 89 f0             	mov    %rsi,%r8
  4028b9:	48 89 f9             	mov    %rdi,%rcx
  4028bc:	ba 96 34 40 00       	mov    $0x403496,%edx
  4028c1:	be 6e 3b 00 00       	mov    $0x3b6e,%esi
  4028c6:	bf 68 34 40 00       	mov    $0x403468,%edi
  4028cb:	e8 20 f6 ff ff       	callq  401ef0 <submitr>
  4028d0:	eb 0e                	jmp    4028e0 <driver_post+0x71>
  4028d2:	66 c7 03 4f 4b       	movw   $0x4b4f,(%rbx)
  4028d7:	c6 43 02 00          	movb   $0x0,0x2(%rbx)
  4028db:	b8 00 00 00 00       	mov    $0x0,%eax
  4028e0:	48 83 c4 10          	add    $0x10,%rsp
  4028e4:	5b                   	pop    %rbx
  4028e5:	c3                   	retq   
  4028e6:	66 2e 0f 1f 84 00 00 	nopw   %cs:0x0(%rax,%rax,1)
  4028ed:	00 00 00 

00000000004028f0 <__libc_csu_init>:
  4028f0:	41 57                	push   %r15
  4028f2:	41 89 ff             	mov    %edi,%r15d
  4028f5:	41 56                	push   %r14
  4028f7:	49 89 f6             	mov    %rsi,%r14
  4028fa:	41 55                	push   %r13
  4028fc:	49 89 d5             	mov    %rdx,%r13
  4028ff:	41 54                	push   %r12
  402901:	4c 8d 25 08 15 20 00 	lea    0x201508(%rip),%r12        # 603e10 <__frame_dummy_init_array_entry>
  402908:	55                   	push   %rbp
  402909:	48 8d 2d 08 15 20 00 	lea    0x201508(%rip),%rbp        # 603e18 <__init_array_end>
  402910:	53                   	push   %rbx
  402911:	4c 29 e5             	sub    %r12,%rbp
  402914:	31 db                	xor    %ebx,%ebx
  402916:	48 c1 fd 03          	sar    $0x3,%rbp
  40291a:	48 83 ec 08          	sub    $0x8,%rsp
  40291e:	e8 75 e1 ff ff       	callq  400a98 <_init>
  402923:	48 85 ed             	test   %rbp,%rbp
  402926:	74 1e                	je     402946 <__libc_csu_init+0x56>
  402928:	0f 1f 84 00 00 00 00 	nopl   0x0(%rax,%rax,1)
  40292f:	00 
  402930:	4c 89 ea             	mov    %r13,%rdx
  402933:	4c 89 f6             	mov    %r14,%rsi
  402936:	44 89 ff             	mov    %r15d,%edi
  402939:	41 ff 14 dc          	callq  *(%r12,%rbx,8)
  40293d:	48 83 c3 01          	add    $0x1,%rbx
  402941:	48 39 eb             	cmp    %rbp,%rbx
  402944:	75 ea                	jne    402930 <__libc_csu_init+0x40>
  402946:	48 83 c4 08          	add    $0x8,%rsp
  40294a:	5b                   	pop    %rbx
  40294b:	5d                   	pop    %rbp
  40294c:	41 5c                	pop    %r12
  40294e:	41 5d                	pop    %r13
  402950:	41 5e                	pop    %r14
  402952:	41 5f                	pop    %r15
  402954:	c3                   	retq   
  402955:	90                   	nop
  402956:	66 2e 0f 1f 84 00 00 	nopw   %cs:0x0(%rax,%rax,1)
  40295d:	00 00 00 

0000000000402960 <__libc_csu_fini>:
  402960:	f3 c3                	repz retq 

Disassembly of section .fini:

0000000000402964 <_fini>:
  402964:	48 83 ec 08          	sub    $0x8,%rsp
  402968:	48 83 c4 08          	add    $0x8,%rsp
  40296c:	c3                   	retq   
